
kernel8.elf:     file format elf64-littleaarch64


Disassembly of section .text:

0000000000080000 <_start>:
   80000:	d53800a1 	mrs	x1, mpidr_el1
   80004:	92400421 	and	x1, x1, #0x3
   80008:	b4000061 	cbz	x1, 80014 <_start+0x14>
   8000c:	d503205f 	wfe
   80010:	17ffffff 	b	8000c <_start+0xc>
   80014:	9400000d 	bl	80048 <from_el2_to_el1>

0000000000080018 <set_exception_vector_table>:
   80018:	10003f42 	adr	x2, 80800 <exception_vector_table>
   8001c:	d518c002 	msr	vbar_el1, x2
   80020:	58009141 	ldr	x1, 81248 <lowerEL_sync_handler+0x98>
   80024:	9100003f 	mov	sp, x1
   80028:	58009141 	ldr	x1, 81250 <lowerEL_sync_handler+0xa0>
   8002c:	180090a2 	ldr	w2, 81240 <lowerEL_sync_handler+0x90>
   80030:	34000082 	cbz	w2, 80040 <main_loop>
   80034:	f800843f 	str	xzr, [x1], #8
   80038:	51000442 	sub	w2, w2, #0x1
   8003c:	35ffffa2 	cbnz	w2, 80030 <set_exception_vector_table+0x18>

0000000000080040 <main_loop>:
   80040:	940011e1 	bl	847c4 <main>
   80044:	17fffff2 	b	8000c <_start+0xc>

0000000000080048 <from_el2_to_el1>:
   80048:	d2b00002 	mov	x2, #0x80000000            	// #2147483648
   8004c:	d51c1102 	msr	hcr_el2, x2
   80050:	d28068a2 	mov	x2, #0x345                 	// #837
   80054:	d51c4002 	msr	spsr_el2, x2
   80058:	d51c403e 	msr	elr_el2, x30
   8005c:	d69f03e0 	eret
   80060:	d503201f 	nop
   80064:	d503201f 	nop
   80068:	d503201f 	nop
   8006c:	d503201f 	nop
   80070:	d503201f 	nop
   80074:	d503201f 	nop
   80078:	d503201f 	nop
   8007c:	d503201f 	nop
   80080:	d503201f 	nop
   80084:	d503201f 	nop
   80088:	d503201f 	nop
   8008c:	d503201f 	nop
   80090:	d503201f 	nop
   80094:	d503201f 	nop
   80098:	d503201f 	nop
   8009c:	d503201f 	nop
   800a0:	d503201f 	nop
   800a4:	d503201f 	nop
   800a8:	d503201f 	nop
   800ac:	d503201f 	nop
   800b0:	d503201f 	nop
   800b4:	d503201f 	nop
   800b8:	d503201f 	nop
   800bc:	d503201f 	nop
   800c0:	d503201f 	nop
   800c4:	d503201f 	nop
   800c8:	d503201f 	nop
   800cc:	d503201f 	nop
   800d0:	d503201f 	nop
   800d4:	d503201f 	nop
   800d8:	d503201f 	nop
   800dc:	d503201f 	nop
   800e0:	d503201f 	nop
   800e4:	d503201f 	nop
   800e8:	d503201f 	nop
   800ec:	d503201f 	nop
   800f0:	d503201f 	nop
   800f4:	d503201f 	nop
   800f8:	d503201f 	nop
   800fc:	d503201f 	nop
   80100:	d503201f 	nop
   80104:	d503201f 	nop
   80108:	d503201f 	nop
   8010c:	d503201f 	nop
   80110:	d503201f 	nop
   80114:	d503201f 	nop
   80118:	d503201f 	nop
   8011c:	d503201f 	nop
   80120:	d503201f 	nop
   80124:	d503201f 	nop
   80128:	d503201f 	nop
   8012c:	d503201f 	nop
   80130:	d503201f 	nop
   80134:	d503201f 	nop
   80138:	d503201f 	nop
   8013c:	d503201f 	nop
   80140:	d503201f 	nop
   80144:	d503201f 	nop
   80148:	d503201f 	nop
   8014c:	d503201f 	nop
   80150:	d503201f 	nop
   80154:	d503201f 	nop
   80158:	d503201f 	nop
   8015c:	d503201f 	nop
   80160:	d503201f 	nop
   80164:	d503201f 	nop
   80168:	d503201f 	nop
   8016c:	d503201f 	nop
   80170:	d503201f 	nop
   80174:	d503201f 	nop
   80178:	d503201f 	nop
   8017c:	d503201f 	nop
   80180:	d503201f 	nop
   80184:	d503201f 	nop
   80188:	d503201f 	nop
   8018c:	d503201f 	nop
   80190:	d503201f 	nop
   80194:	d503201f 	nop
   80198:	d503201f 	nop
   8019c:	d503201f 	nop
   801a0:	d503201f 	nop
   801a4:	d503201f 	nop
   801a8:	d503201f 	nop
   801ac:	d503201f 	nop
   801b0:	d503201f 	nop
   801b4:	d503201f 	nop
   801b8:	d503201f 	nop
   801bc:	d503201f 	nop
   801c0:	d503201f 	nop
   801c4:	d503201f 	nop
   801c8:	d503201f 	nop
   801cc:	d503201f 	nop
   801d0:	d503201f 	nop
   801d4:	d503201f 	nop
   801d8:	d503201f 	nop
   801dc:	d503201f 	nop
   801e0:	d503201f 	nop
   801e4:	d503201f 	nop
   801e8:	d503201f 	nop
   801ec:	d503201f 	nop
   801f0:	d503201f 	nop
   801f4:	d503201f 	nop
   801f8:	d503201f 	nop
   801fc:	d503201f 	nop
   80200:	d503201f 	nop
   80204:	d503201f 	nop
   80208:	d503201f 	nop
   8020c:	d503201f 	nop
   80210:	d503201f 	nop
   80214:	d503201f 	nop
   80218:	d503201f 	nop
   8021c:	d503201f 	nop
   80220:	d503201f 	nop
   80224:	d503201f 	nop
   80228:	d503201f 	nop
   8022c:	d503201f 	nop
   80230:	d503201f 	nop
   80234:	d503201f 	nop
   80238:	d503201f 	nop
   8023c:	d503201f 	nop
   80240:	d503201f 	nop
   80244:	d503201f 	nop
   80248:	d503201f 	nop
   8024c:	d503201f 	nop
   80250:	d503201f 	nop
   80254:	d503201f 	nop
   80258:	d503201f 	nop
   8025c:	d503201f 	nop
   80260:	d503201f 	nop
   80264:	d503201f 	nop
   80268:	d503201f 	nop
   8026c:	d503201f 	nop
   80270:	d503201f 	nop
   80274:	d503201f 	nop
   80278:	d503201f 	nop
   8027c:	d503201f 	nop
   80280:	d503201f 	nop
   80284:	d503201f 	nop
   80288:	d503201f 	nop
   8028c:	d503201f 	nop
   80290:	d503201f 	nop
   80294:	d503201f 	nop
   80298:	d503201f 	nop
   8029c:	d503201f 	nop
   802a0:	d503201f 	nop
   802a4:	d503201f 	nop
   802a8:	d503201f 	nop
   802ac:	d503201f 	nop
   802b0:	d503201f 	nop
   802b4:	d503201f 	nop
   802b8:	d503201f 	nop
   802bc:	d503201f 	nop
   802c0:	d503201f 	nop
   802c4:	d503201f 	nop
   802c8:	d503201f 	nop
   802cc:	d503201f 	nop
   802d0:	d503201f 	nop
   802d4:	d503201f 	nop
   802d8:	d503201f 	nop
   802dc:	d503201f 	nop
   802e0:	d503201f 	nop
   802e4:	d503201f 	nop
   802e8:	d503201f 	nop
   802ec:	d503201f 	nop
   802f0:	d503201f 	nop
   802f4:	d503201f 	nop
   802f8:	d503201f 	nop
   802fc:	d503201f 	nop
   80300:	d503201f 	nop
   80304:	d503201f 	nop
   80308:	d503201f 	nop
   8030c:	d503201f 	nop
   80310:	d503201f 	nop
   80314:	d503201f 	nop
   80318:	d503201f 	nop
   8031c:	d503201f 	nop
   80320:	d503201f 	nop
   80324:	d503201f 	nop
   80328:	d503201f 	nop
   8032c:	d503201f 	nop
   80330:	d503201f 	nop
   80334:	d503201f 	nop
   80338:	d503201f 	nop
   8033c:	d503201f 	nop
   80340:	d503201f 	nop
   80344:	d503201f 	nop
   80348:	d503201f 	nop
   8034c:	d503201f 	nop
   80350:	d503201f 	nop
   80354:	d503201f 	nop
   80358:	d503201f 	nop
   8035c:	d503201f 	nop
   80360:	d503201f 	nop
   80364:	d503201f 	nop
   80368:	d503201f 	nop
   8036c:	d503201f 	nop
   80370:	d503201f 	nop
   80374:	d503201f 	nop
   80378:	d503201f 	nop
   8037c:	d503201f 	nop
   80380:	d503201f 	nop
   80384:	d503201f 	nop
   80388:	d503201f 	nop
   8038c:	d503201f 	nop
   80390:	d503201f 	nop
   80394:	d503201f 	nop
   80398:	d503201f 	nop
   8039c:	d503201f 	nop
   803a0:	d503201f 	nop
   803a4:	d503201f 	nop
   803a8:	d503201f 	nop
   803ac:	d503201f 	nop
   803b0:	d503201f 	nop
   803b4:	d503201f 	nop
   803b8:	d503201f 	nop
   803bc:	d503201f 	nop
   803c0:	d503201f 	nop
   803c4:	d503201f 	nop
   803c8:	d503201f 	nop
   803cc:	d503201f 	nop
   803d0:	d503201f 	nop
   803d4:	d503201f 	nop
   803d8:	d503201f 	nop
   803dc:	d503201f 	nop
   803e0:	d503201f 	nop
   803e4:	d503201f 	nop
   803e8:	d503201f 	nop
   803ec:	d503201f 	nop
   803f0:	d503201f 	nop
   803f4:	d503201f 	nop
   803f8:	d503201f 	nop
   803fc:	d503201f 	nop
   80400:	d503201f 	nop
   80404:	d503201f 	nop
   80408:	d503201f 	nop
   8040c:	d503201f 	nop
   80410:	d503201f 	nop
   80414:	d503201f 	nop
   80418:	d503201f 	nop
   8041c:	d503201f 	nop
   80420:	d503201f 	nop
   80424:	d503201f 	nop
   80428:	d503201f 	nop
   8042c:	d503201f 	nop
   80430:	d503201f 	nop
   80434:	d503201f 	nop
   80438:	d503201f 	nop
   8043c:	d503201f 	nop
   80440:	d503201f 	nop
   80444:	d503201f 	nop
   80448:	d503201f 	nop
   8044c:	d503201f 	nop
   80450:	d503201f 	nop
   80454:	d503201f 	nop
   80458:	d503201f 	nop
   8045c:	d503201f 	nop
   80460:	d503201f 	nop
   80464:	d503201f 	nop
   80468:	d503201f 	nop
   8046c:	d503201f 	nop
   80470:	d503201f 	nop
   80474:	d503201f 	nop
   80478:	d503201f 	nop
   8047c:	d503201f 	nop
   80480:	d503201f 	nop
   80484:	d503201f 	nop
   80488:	d503201f 	nop
   8048c:	d503201f 	nop
   80490:	d503201f 	nop
   80494:	d503201f 	nop
   80498:	d503201f 	nop
   8049c:	d503201f 	nop
   804a0:	d503201f 	nop
   804a4:	d503201f 	nop
   804a8:	d503201f 	nop
   804ac:	d503201f 	nop
   804b0:	d503201f 	nop
   804b4:	d503201f 	nop
   804b8:	d503201f 	nop
   804bc:	d503201f 	nop
   804c0:	d503201f 	nop
   804c4:	d503201f 	nop
   804c8:	d503201f 	nop
   804cc:	d503201f 	nop
   804d0:	d503201f 	nop
   804d4:	d503201f 	nop
   804d8:	d503201f 	nop
   804dc:	d503201f 	nop
   804e0:	d503201f 	nop
   804e4:	d503201f 	nop
   804e8:	d503201f 	nop
   804ec:	d503201f 	nop
   804f0:	d503201f 	nop
   804f4:	d503201f 	nop
   804f8:	d503201f 	nop
   804fc:	d503201f 	nop
   80500:	d503201f 	nop
   80504:	d503201f 	nop
   80508:	d503201f 	nop
   8050c:	d503201f 	nop
   80510:	d503201f 	nop
   80514:	d503201f 	nop
   80518:	d503201f 	nop
   8051c:	d503201f 	nop
   80520:	d503201f 	nop
   80524:	d503201f 	nop
   80528:	d503201f 	nop
   8052c:	d503201f 	nop
   80530:	d503201f 	nop
   80534:	d503201f 	nop
   80538:	d503201f 	nop
   8053c:	d503201f 	nop
   80540:	d503201f 	nop
   80544:	d503201f 	nop
   80548:	d503201f 	nop
   8054c:	d503201f 	nop
   80550:	d503201f 	nop
   80554:	d503201f 	nop
   80558:	d503201f 	nop
   8055c:	d503201f 	nop
   80560:	d503201f 	nop
   80564:	d503201f 	nop
   80568:	d503201f 	nop
   8056c:	d503201f 	nop
   80570:	d503201f 	nop
   80574:	d503201f 	nop
   80578:	d503201f 	nop
   8057c:	d503201f 	nop
   80580:	d503201f 	nop
   80584:	d503201f 	nop
   80588:	d503201f 	nop
   8058c:	d503201f 	nop
   80590:	d503201f 	nop
   80594:	d503201f 	nop
   80598:	d503201f 	nop
   8059c:	d503201f 	nop
   805a0:	d503201f 	nop
   805a4:	d503201f 	nop
   805a8:	d503201f 	nop
   805ac:	d503201f 	nop
   805b0:	d503201f 	nop
   805b4:	d503201f 	nop
   805b8:	d503201f 	nop
   805bc:	d503201f 	nop
   805c0:	d503201f 	nop
   805c4:	d503201f 	nop
   805c8:	d503201f 	nop
   805cc:	d503201f 	nop
   805d0:	d503201f 	nop
   805d4:	d503201f 	nop
   805d8:	d503201f 	nop
   805dc:	d503201f 	nop
   805e0:	d503201f 	nop
   805e4:	d503201f 	nop
   805e8:	d503201f 	nop
   805ec:	d503201f 	nop
   805f0:	d503201f 	nop
   805f4:	d503201f 	nop
   805f8:	d503201f 	nop
   805fc:	d503201f 	nop
   80600:	d503201f 	nop
   80604:	d503201f 	nop
   80608:	d503201f 	nop
   8060c:	d503201f 	nop
   80610:	d503201f 	nop
   80614:	d503201f 	nop
   80618:	d503201f 	nop
   8061c:	d503201f 	nop
   80620:	d503201f 	nop
   80624:	d503201f 	nop
   80628:	d503201f 	nop
   8062c:	d503201f 	nop
   80630:	d503201f 	nop
   80634:	d503201f 	nop
   80638:	d503201f 	nop
   8063c:	d503201f 	nop
   80640:	d503201f 	nop
   80644:	d503201f 	nop
   80648:	d503201f 	nop
   8064c:	d503201f 	nop
   80650:	d503201f 	nop
   80654:	d503201f 	nop
   80658:	d503201f 	nop
   8065c:	d503201f 	nop
   80660:	d503201f 	nop
   80664:	d503201f 	nop
   80668:	d503201f 	nop
   8066c:	d503201f 	nop
   80670:	d503201f 	nop
   80674:	d503201f 	nop
   80678:	d503201f 	nop
   8067c:	d503201f 	nop
   80680:	d503201f 	nop
   80684:	d503201f 	nop
   80688:	d503201f 	nop
   8068c:	d503201f 	nop
   80690:	d503201f 	nop
   80694:	d503201f 	nop
   80698:	d503201f 	nop
   8069c:	d503201f 	nop
   806a0:	d503201f 	nop
   806a4:	d503201f 	nop
   806a8:	d503201f 	nop
   806ac:	d503201f 	nop
   806b0:	d503201f 	nop
   806b4:	d503201f 	nop
   806b8:	d503201f 	nop
   806bc:	d503201f 	nop
   806c0:	d503201f 	nop
   806c4:	d503201f 	nop
   806c8:	d503201f 	nop
   806cc:	d503201f 	nop
   806d0:	d503201f 	nop
   806d4:	d503201f 	nop
   806d8:	d503201f 	nop
   806dc:	d503201f 	nop
   806e0:	d503201f 	nop
   806e4:	d503201f 	nop
   806e8:	d503201f 	nop
   806ec:	d503201f 	nop
   806f0:	d503201f 	nop
   806f4:	d503201f 	nop
   806f8:	d503201f 	nop
   806fc:	d503201f 	nop
   80700:	d503201f 	nop
   80704:	d503201f 	nop
   80708:	d503201f 	nop
   8070c:	d503201f 	nop
   80710:	d503201f 	nop
   80714:	d503201f 	nop
   80718:	d503201f 	nop
   8071c:	d503201f 	nop
   80720:	d503201f 	nop
   80724:	d503201f 	nop
   80728:	d503201f 	nop
   8072c:	d503201f 	nop
   80730:	d503201f 	nop
   80734:	d503201f 	nop
   80738:	d503201f 	nop
   8073c:	d503201f 	nop
   80740:	d503201f 	nop
   80744:	d503201f 	nop
   80748:	d503201f 	nop
   8074c:	d503201f 	nop
   80750:	d503201f 	nop
   80754:	d503201f 	nop
   80758:	d503201f 	nop
   8075c:	d503201f 	nop
   80760:	d503201f 	nop
   80764:	d503201f 	nop
   80768:	d503201f 	nop
   8076c:	d503201f 	nop
   80770:	d503201f 	nop
   80774:	d503201f 	nop
   80778:	d503201f 	nop
   8077c:	d503201f 	nop
   80780:	d503201f 	nop
   80784:	d503201f 	nop
   80788:	d503201f 	nop
   8078c:	d503201f 	nop
   80790:	d503201f 	nop
   80794:	d503201f 	nop
   80798:	d503201f 	nop
   8079c:	d503201f 	nop
   807a0:	d503201f 	nop
   807a4:	d503201f 	nop
   807a8:	d503201f 	nop
   807ac:	d503201f 	nop
   807b0:	d503201f 	nop
   807b4:	d503201f 	nop
   807b8:	d503201f 	nop
   807bc:	d503201f 	nop
   807c0:	d503201f 	nop
   807c4:	d503201f 	nop
   807c8:	d503201f 	nop
   807cc:	d503201f 	nop
   807d0:	d503201f 	nop
   807d4:	d503201f 	nop
   807d8:	d503201f 	nop
   807dc:	d503201f 	nop
   807e0:	d503201f 	nop
   807e4:	d503201f 	nop
   807e8:	d503201f 	nop
   807ec:	d503201f 	nop
   807f0:	d503201f 	nop
   807f4:	d503201f 	nop
   807f8:	d503201f 	nop
   807fc:	d503201f 	nop

0000000000080800 <exception_vector_table>:
   80800:	14000200 	b	81000 <exception_invalid_handler>
   80804:	d503201f 	nop
   80808:	d503201f 	nop
   8080c:	d503201f 	nop
   80810:	d503201f 	nop
   80814:	d503201f 	nop
   80818:	d503201f 	nop
   8081c:	d503201f 	nop
   80820:	d503201f 	nop
   80824:	d503201f 	nop
   80828:	d503201f 	nop
   8082c:	d503201f 	nop
   80830:	d503201f 	nop
   80834:	d503201f 	nop
   80838:	d503201f 	nop
   8083c:	d503201f 	nop
   80840:	d503201f 	nop
   80844:	d503201f 	nop
   80848:	d503201f 	nop
   8084c:	d503201f 	nop
   80850:	d503201f 	nop
   80854:	d503201f 	nop
   80858:	d503201f 	nop
   8085c:	d503201f 	nop
   80860:	d503201f 	nop
   80864:	d503201f 	nop
   80868:	d503201f 	nop
   8086c:	d503201f 	nop
   80870:	d503201f 	nop
   80874:	d503201f 	nop
   80878:	d503201f 	nop
   8087c:	d503201f 	nop
   80880:	140001e0 	b	81000 <exception_invalid_handler>
   80884:	d503201f 	nop
   80888:	d503201f 	nop
   8088c:	d503201f 	nop
   80890:	d503201f 	nop
   80894:	d503201f 	nop
   80898:	d503201f 	nop
   8089c:	d503201f 	nop
   808a0:	d503201f 	nop
   808a4:	d503201f 	nop
   808a8:	d503201f 	nop
   808ac:	d503201f 	nop
   808b0:	d503201f 	nop
   808b4:	d503201f 	nop
   808b8:	d503201f 	nop
   808bc:	d503201f 	nop
   808c0:	d503201f 	nop
   808c4:	d503201f 	nop
   808c8:	d503201f 	nop
   808cc:	d503201f 	nop
   808d0:	d503201f 	nop
   808d4:	d503201f 	nop
   808d8:	d503201f 	nop
   808dc:	d503201f 	nop
   808e0:	d503201f 	nop
   808e4:	d503201f 	nop
   808e8:	d503201f 	nop
   808ec:	d503201f 	nop
   808f0:	d503201f 	nop
   808f4:	d503201f 	nop
   808f8:	d503201f 	nop
   808fc:	d503201f 	nop
   80900:	140001c0 	b	81000 <exception_invalid_handler>
   80904:	d503201f 	nop
   80908:	d503201f 	nop
   8090c:	d503201f 	nop
   80910:	d503201f 	nop
   80914:	d503201f 	nop
   80918:	d503201f 	nop
   8091c:	d503201f 	nop
   80920:	d503201f 	nop
   80924:	d503201f 	nop
   80928:	d503201f 	nop
   8092c:	d503201f 	nop
   80930:	d503201f 	nop
   80934:	d503201f 	nop
   80938:	d503201f 	nop
   8093c:	d503201f 	nop
   80940:	d503201f 	nop
   80944:	d503201f 	nop
   80948:	d503201f 	nop
   8094c:	d503201f 	nop
   80950:	d503201f 	nop
   80954:	d503201f 	nop
   80958:	d503201f 	nop
   8095c:	d503201f 	nop
   80960:	d503201f 	nop
   80964:	d503201f 	nop
   80968:	d503201f 	nop
   8096c:	d503201f 	nop
   80970:	d503201f 	nop
   80974:	d503201f 	nop
   80978:	d503201f 	nop
   8097c:	d503201f 	nop
   80980:	140001a0 	b	81000 <exception_invalid_handler>
   80984:	d503201f 	nop
   80988:	d503201f 	nop
   8098c:	d503201f 	nop
   80990:	d503201f 	nop
   80994:	d503201f 	nop
   80998:	d503201f 	nop
   8099c:	d503201f 	nop
   809a0:	d503201f 	nop
   809a4:	d503201f 	nop
   809a8:	d503201f 	nop
   809ac:	d503201f 	nop
   809b0:	d503201f 	nop
   809b4:	d503201f 	nop
   809b8:	d503201f 	nop
   809bc:	d503201f 	nop
   809c0:	d503201f 	nop
   809c4:	d503201f 	nop
   809c8:	d503201f 	nop
   809cc:	d503201f 	nop
   809d0:	d503201f 	nop
   809d4:	d503201f 	nop
   809d8:	d503201f 	nop
   809dc:	d503201f 	nop
   809e0:	d503201f 	nop
   809e4:	d503201f 	nop
   809e8:	d503201f 	nop
   809ec:	d503201f 	nop
   809f0:	d503201f 	nop
   809f4:	d503201f 	nop
   809f8:	d503201f 	nop
   809fc:	d503201f 	nop
   80a00:	14000180 	b	81000 <exception_invalid_handler>
   80a04:	d503201f 	nop
   80a08:	d503201f 	nop
   80a0c:	d503201f 	nop
   80a10:	d503201f 	nop
   80a14:	d503201f 	nop
   80a18:	d503201f 	nop
   80a1c:	d503201f 	nop
   80a20:	d503201f 	nop
   80a24:	d503201f 	nop
   80a28:	d503201f 	nop
   80a2c:	d503201f 	nop
   80a30:	d503201f 	nop
   80a34:	d503201f 	nop
   80a38:	d503201f 	nop
   80a3c:	d503201f 	nop
   80a40:	d503201f 	nop
   80a44:	d503201f 	nop
   80a48:	d503201f 	nop
   80a4c:	d503201f 	nop
   80a50:	d503201f 	nop
   80a54:	d503201f 	nop
   80a58:	d503201f 	nop
   80a5c:	d503201f 	nop
   80a60:	d503201f 	nop
   80a64:	d503201f 	nop
   80a68:	d503201f 	nop
   80a6c:	d503201f 	nop
   80a70:	d503201f 	nop
   80a74:	d503201f 	nop
   80a78:	d503201f 	nop
   80a7c:	d503201f 	nop
   80a80:	14000184 	b	81090 <currentEL_irq_handler>
   80a84:	d503201f 	nop
   80a88:	d503201f 	nop
   80a8c:	d503201f 	nop
   80a90:	d503201f 	nop
   80a94:	d503201f 	nop
   80a98:	d503201f 	nop
   80a9c:	d503201f 	nop
   80aa0:	d503201f 	nop
   80aa4:	d503201f 	nop
   80aa8:	d503201f 	nop
   80aac:	d503201f 	nop
   80ab0:	d503201f 	nop
   80ab4:	d503201f 	nop
   80ab8:	d503201f 	nop
   80abc:	d503201f 	nop
   80ac0:	d503201f 	nop
   80ac4:	d503201f 	nop
   80ac8:	d503201f 	nop
   80acc:	d503201f 	nop
   80ad0:	d503201f 	nop
   80ad4:	d503201f 	nop
   80ad8:	d503201f 	nop
   80adc:	d503201f 	nop
   80ae0:	d503201f 	nop
   80ae4:	d503201f 	nop
   80ae8:	d503201f 	nop
   80aec:	d503201f 	nop
   80af0:	d503201f 	nop
   80af4:	d503201f 	nop
   80af8:	d503201f 	nop
   80afc:	d503201f 	nop
   80b00:	14000140 	b	81000 <exception_invalid_handler>
   80b04:	d503201f 	nop
   80b08:	d503201f 	nop
   80b0c:	d503201f 	nop
   80b10:	d503201f 	nop
   80b14:	d503201f 	nop
   80b18:	d503201f 	nop
   80b1c:	d503201f 	nop
   80b20:	d503201f 	nop
   80b24:	d503201f 	nop
   80b28:	d503201f 	nop
   80b2c:	d503201f 	nop
   80b30:	d503201f 	nop
   80b34:	d503201f 	nop
   80b38:	d503201f 	nop
   80b3c:	d503201f 	nop
   80b40:	d503201f 	nop
   80b44:	d503201f 	nop
   80b48:	d503201f 	nop
   80b4c:	d503201f 	nop
   80b50:	d503201f 	nop
   80b54:	d503201f 	nop
   80b58:	d503201f 	nop
   80b5c:	d503201f 	nop
   80b60:	d503201f 	nop
   80b64:	d503201f 	nop
   80b68:	d503201f 	nop
   80b6c:	d503201f 	nop
   80b70:	d503201f 	nop
   80b74:	d503201f 	nop
   80b78:	d503201f 	nop
   80b7c:	d503201f 	nop
   80b80:	14000120 	b	81000 <exception_invalid_handler>
   80b84:	d503201f 	nop
   80b88:	d503201f 	nop
   80b8c:	d503201f 	nop
   80b90:	d503201f 	nop
   80b94:	d503201f 	nop
   80b98:	d503201f 	nop
   80b9c:	d503201f 	nop
   80ba0:	d503201f 	nop
   80ba4:	d503201f 	nop
   80ba8:	d503201f 	nop
   80bac:	d503201f 	nop
   80bb0:	d503201f 	nop
   80bb4:	d503201f 	nop
   80bb8:	d503201f 	nop
   80bbc:	d503201f 	nop
   80bc0:	d503201f 	nop
   80bc4:	d503201f 	nop
   80bc8:	d503201f 	nop
   80bcc:	d503201f 	nop
   80bd0:	d503201f 	nop
   80bd4:	d503201f 	nop
   80bd8:	d503201f 	nop
   80bdc:	d503201f 	nop
   80be0:	d503201f 	nop
   80be4:	d503201f 	nop
   80be8:	d503201f 	nop
   80bec:	d503201f 	nop
   80bf0:	d503201f 	nop
   80bf4:	d503201f 	nop
   80bf8:	d503201f 	nop
   80bfc:	d503201f 	nop
   80c00:	1400016c 	b	811b0 <lowerEL_sync_handler>
   80c04:	d503201f 	nop
   80c08:	d503201f 	nop
   80c0c:	d503201f 	nop
   80c10:	d503201f 	nop
   80c14:	d503201f 	nop
   80c18:	d503201f 	nop
   80c1c:	d503201f 	nop
   80c20:	d503201f 	nop
   80c24:	d503201f 	nop
   80c28:	d503201f 	nop
   80c2c:	d503201f 	nop
   80c30:	d503201f 	nop
   80c34:	d503201f 	nop
   80c38:	d503201f 	nop
   80c3c:	d503201f 	nop
   80c40:	d503201f 	nop
   80c44:	d503201f 	nop
   80c48:	d503201f 	nop
   80c4c:	d503201f 	nop
   80c50:	d503201f 	nop
   80c54:	d503201f 	nop
   80c58:	d503201f 	nop
   80c5c:	d503201f 	nop
   80c60:	d503201f 	nop
   80c64:	d503201f 	nop
   80c68:	d503201f 	nop
   80c6c:	d503201f 	nop
   80c70:	d503201f 	nop
   80c74:	d503201f 	nop
   80c78:	d503201f 	nop
   80c7c:	d503201f 	nop
   80c80:	14000128 	b	81120 <lowerEL_irq_handler>
   80c84:	d503201f 	nop
   80c88:	d503201f 	nop
   80c8c:	d503201f 	nop
   80c90:	d503201f 	nop
   80c94:	d503201f 	nop
   80c98:	d503201f 	nop
   80c9c:	d503201f 	nop
   80ca0:	d503201f 	nop
   80ca4:	d503201f 	nop
   80ca8:	d503201f 	nop
   80cac:	d503201f 	nop
   80cb0:	d503201f 	nop
   80cb4:	d503201f 	nop
   80cb8:	d503201f 	nop
   80cbc:	d503201f 	nop
   80cc0:	d503201f 	nop
   80cc4:	d503201f 	nop
   80cc8:	d503201f 	nop
   80ccc:	d503201f 	nop
   80cd0:	d503201f 	nop
   80cd4:	d503201f 	nop
   80cd8:	d503201f 	nop
   80cdc:	d503201f 	nop
   80ce0:	d503201f 	nop
   80ce4:	d503201f 	nop
   80ce8:	d503201f 	nop
   80cec:	d503201f 	nop
   80cf0:	d503201f 	nop
   80cf4:	d503201f 	nop
   80cf8:	d503201f 	nop
   80cfc:	d503201f 	nop
   80d00:	140000c0 	b	81000 <exception_invalid_handler>
   80d04:	d503201f 	nop
   80d08:	d503201f 	nop
   80d0c:	d503201f 	nop
   80d10:	d503201f 	nop
   80d14:	d503201f 	nop
   80d18:	d503201f 	nop
   80d1c:	d503201f 	nop
   80d20:	d503201f 	nop
   80d24:	d503201f 	nop
   80d28:	d503201f 	nop
   80d2c:	d503201f 	nop
   80d30:	d503201f 	nop
   80d34:	d503201f 	nop
   80d38:	d503201f 	nop
   80d3c:	d503201f 	nop
   80d40:	d503201f 	nop
   80d44:	d503201f 	nop
   80d48:	d503201f 	nop
   80d4c:	d503201f 	nop
   80d50:	d503201f 	nop
   80d54:	d503201f 	nop
   80d58:	d503201f 	nop
   80d5c:	d503201f 	nop
   80d60:	d503201f 	nop
   80d64:	d503201f 	nop
   80d68:	d503201f 	nop
   80d6c:	d503201f 	nop
   80d70:	d503201f 	nop
   80d74:	d503201f 	nop
   80d78:	d503201f 	nop
   80d7c:	d503201f 	nop
   80d80:	140000a0 	b	81000 <exception_invalid_handler>
   80d84:	d503201f 	nop
   80d88:	d503201f 	nop
   80d8c:	d503201f 	nop
   80d90:	d503201f 	nop
   80d94:	d503201f 	nop
   80d98:	d503201f 	nop
   80d9c:	d503201f 	nop
   80da0:	d503201f 	nop
   80da4:	d503201f 	nop
   80da8:	d503201f 	nop
   80dac:	d503201f 	nop
   80db0:	d503201f 	nop
   80db4:	d503201f 	nop
   80db8:	d503201f 	nop
   80dbc:	d503201f 	nop
   80dc0:	d503201f 	nop
   80dc4:	d503201f 	nop
   80dc8:	d503201f 	nop
   80dcc:	d503201f 	nop
   80dd0:	d503201f 	nop
   80dd4:	d503201f 	nop
   80dd8:	d503201f 	nop
   80ddc:	d503201f 	nop
   80de0:	d503201f 	nop
   80de4:	d503201f 	nop
   80de8:	d503201f 	nop
   80dec:	d503201f 	nop
   80df0:	d503201f 	nop
   80df4:	d503201f 	nop
   80df8:	d503201f 	nop
   80dfc:	d503201f 	nop
   80e00:	14000080 	b	81000 <exception_invalid_handler>
   80e04:	d503201f 	nop
   80e08:	d503201f 	nop
   80e0c:	d503201f 	nop
   80e10:	d503201f 	nop
   80e14:	d503201f 	nop
   80e18:	d503201f 	nop
   80e1c:	d503201f 	nop
   80e20:	d503201f 	nop
   80e24:	d503201f 	nop
   80e28:	d503201f 	nop
   80e2c:	d503201f 	nop
   80e30:	d503201f 	nop
   80e34:	d503201f 	nop
   80e38:	d503201f 	nop
   80e3c:	d503201f 	nop
   80e40:	d503201f 	nop
   80e44:	d503201f 	nop
   80e48:	d503201f 	nop
   80e4c:	d503201f 	nop
   80e50:	d503201f 	nop
   80e54:	d503201f 	nop
   80e58:	d503201f 	nop
   80e5c:	d503201f 	nop
   80e60:	d503201f 	nop
   80e64:	d503201f 	nop
   80e68:	d503201f 	nop
   80e6c:	d503201f 	nop
   80e70:	d503201f 	nop
   80e74:	d503201f 	nop
   80e78:	d503201f 	nop
   80e7c:	d503201f 	nop
   80e80:	14000060 	b	81000 <exception_invalid_handler>
   80e84:	d503201f 	nop
   80e88:	d503201f 	nop
   80e8c:	d503201f 	nop
   80e90:	d503201f 	nop
   80e94:	d503201f 	nop
   80e98:	d503201f 	nop
   80e9c:	d503201f 	nop
   80ea0:	d503201f 	nop
   80ea4:	d503201f 	nop
   80ea8:	d503201f 	nop
   80eac:	d503201f 	nop
   80eb0:	d503201f 	nop
   80eb4:	d503201f 	nop
   80eb8:	d503201f 	nop
   80ebc:	d503201f 	nop
   80ec0:	d503201f 	nop
   80ec4:	d503201f 	nop
   80ec8:	d503201f 	nop
   80ecc:	d503201f 	nop
   80ed0:	d503201f 	nop
   80ed4:	d503201f 	nop
   80ed8:	d503201f 	nop
   80edc:	d503201f 	nop
   80ee0:	d503201f 	nop
   80ee4:	d503201f 	nop
   80ee8:	d503201f 	nop
   80eec:	d503201f 	nop
   80ef0:	d503201f 	nop
   80ef4:	d503201f 	nop
   80ef8:	d503201f 	nop
   80efc:	d503201f 	nop
   80f00:	14000040 	b	81000 <exception_invalid_handler>
   80f04:	d503201f 	nop
   80f08:	d503201f 	nop
   80f0c:	d503201f 	nop
   80f10:	d503201f 	nop
   80f14:	d503201f 	nop
   80f18:	d503201f 	nop
   80f1c:	d503201f 	nop
   80f20:	d503201f 	nop
   80f24:	d503201f 	nop
   80f28:	d503201f 	nop
   80f2c:	d503201f 	nop
   80f30:	d503201f 	nop
   80f34:	d503201f 	nop
   80f38:	d503201f 	nop
   80f3c:	d503201f 	nop
   80f40:	d503201f 	nop
   80f44:	d503201f 	nop
   80f48:	d503201f 	nop
   80f4c:	d503201f 	nop
   80f50:	d503201f 	nop
   80f54:	d503201f 	nop
   80f58:	d503201f 	nop
   80f5c:	d503201f 	nop
   80f60:	d503201f 	nop
   80f64:	d503201f 	nop
   80f68:	d503201f 	nop
   80f6c:	d503201f 	nop
   80f70:	d503201f 	nop
   80f74:	d503201f 	nop
   80f78:	d503201f 	nop
   80f7c:	d503201f 	nop
   80f80:	14000020 	b	81000 <exception_invalid_handler>
   80f84:	d503201f 	nop
   80f88:	d503201f 	nop
   80f8c:	d503201f 	nop
   80f90:	d503201f 	nop
   80f94:	d503201f 	nop
   80f98:	d503201f 	nop
   80f9c:	d503201f 	nop
   80fa0:	d503201f 	nop
   80fa4:	d503201f 	nop
   80fa8:	d503201f 	nop
   80fac:	d503201f 	nop
   80fb0:	d503201f 	nop
   80fb4:	d503201f 	nop
   80fb8:	d503201f 	nop
   80fbc:	d503201f 	nop
   80fc0:	d503201f 	nop
   80fc4:	d503201f 	nop
   80fc8:	d503201f 	nop
   80fcc:	d503201f 	nop
   80fd0:	d503201f 	nop
   80fd4:	d503201f 	nop
   80fd8:	d503201f 	nop
   80fdc:	d503201f 	nop
   80fe0:	d503201f 	nop
   80fe4:	d503201f 	nop
   80fe8:	d503201f 	nop
   80fec:	d503201f 	nop
   80ff0:	d503201f 	nop
   80ff4:	d503201f 	nop
   80ff8:	d503201f 	nop
   80ffc:	d503201f 	nop

0000000000081000 <exception_invalid_handler>:
   81000:	d10403ff 	sub	sp, sp, #0x100
   81004:	a90007e0 	stp	x0, x1, [sp]
   81008:	a9010fe2 	stp	x2, x3, [sp, #16]
   8100c:	a90217e4 	stp	x4, x5, [sp, #32]
   81010:	a9031fe6 	stp	x6, x7, [sp, #48]
   81014:	a90427e8 	stp	x8, x9, [sp, #64]
   81018:	a9052fea 	stp	x10, x11, [sp, #80]
   8101c:	a90637ec 	stp	x12, x13, [sp, #96]
   81020:	a9073fee 	stp	x14, x15, [sp, #112]
   81024:	a90847f0 	stp	x16, x17, [sp, #128]
   81028:	a9094ff2 	stp	x18, x19, [sp, #144]
   8102c:	a90a57f4 	stp	x20, x21, [sp, #160]
   81030:	a90b5ff6 	stp	x22, x23, [sp, #176]
   81034:	a90c67f8 	stp	x24, x25, [sp, #192]
   81038:	a90d6ffa 	stp	x26, x27, [sp, #208]
   8103c:	a90e77fc 	stp	x28, x29, [sp, #224]
   81040:	f9007bfe 	str	x30, [sp, #240]
   81044:	9400074c 	bl	82d74 <no_exception_handle>
   81048:	a94007e0 	ldp	x0, x1, [sp]
   8104c:	a9410fe2 	ldp	x2, x3, [sp, #16]
   81050:	a94217e4 	ldp	x4, x5, [sp, #32]
   81054:	a9431fe6 	ldp	x6, x7, [sp, #48]
   81058:	a94427e8 	ldp	x8, x9, [sp, #64]
   8105c:	a9452fea 	ldp	x10, x11, [sp, #80]
   81060:	a94637ec 	ldp	x12, x13, [sp, #96]
   81064:	a9473fee 	ldp	x14, x15, [sp, #112]
   81068:	a94847f0 	ldp	x16, x17, [sp, #128]
   8106c:	a9494ff2 	ldp	x18, x19, [sp, #144]
   81070:	a94a57f4 	ldp	x20, x21, [sp, #160]
   81074:	a94b5ff6 	ldp	x22, x23, [sp, #176]
   81078:	a94c67f8 	ldp	x24, x25, [sp, #192]
   8107c:	a94d6ffa 	ldp	x26, x27, [sp, #208]
   81080:	a94e77fc 	ldp	x28, x29, [sp, #224]
   81084:	f9407bfe 	ldr	x30, [sp, #240]
   81088:	910403ff 	add	sp, sp, #0x100
   8108c:	d69f03e0 	eret

0000000000081090 <currentEL_irq_handler>:
   81090:	d10403ff 	sub	sp, sp, #0x100
   81094:	a90007e0 	stp	x0, x1, [sp]
   81098:	a9010fe2 	stp	x2, x3, [sp, #16]
   8109c:	a90217e4 	stp	x4, x5, [sp, #32]
   810a0:	a9031fe6 	stp	x6, x7, [sp, #48]
   810a4:	a90427e8 	stp	x8, x9, [sp, #64]
   810a8:	a9052fea 	stp	x10, x11, [sp, #80]
   810ac:	a90637ec 	stp	x12, x13, [sp, #96]
   810b0:	a9073fee 	stp	x14, x15, [sp, #112]
   810b4:	a90847f0 	stp	x16, x17, [sp, #128]
   810b8:	a9094ff2 	stp	x18, x19, [sp, #144]
   810bc:	a90a57f4 	stp	x20, x21, [sp, #160]
   810c0:	a90b5ff6 	stp	x22, x23, [sp, #176]
   810c4:	a90c67f8 	stp	x24, x25, [sp, #192]
   810c8:	a90d6ffa 	stp	x26, x27, [sp, #208]
   810cc:	a90e77fc 	stp	x28, x29, [sp, #224]
   810d0:	f9007bfe 	str	x30, [sp, #240]
   810d4:	94000765 	bl	82e68 <currentEL_irq_router>
   810d8:	a94007e0 	ldp	x0, x1, [sp]
   810dc:	a9410fe2 	ldp	x2, x3, [sp, #16]
   810e0:	a94217e4 	ldp	x4, x5, [sp, #32]
   810e4:	a9431fe6 	ldp	x6, x7, [sp, #48]
   810e8:	a94427e8 	ldp	x8, x9, [sp, #64]
   810ec:	a9452fea 	ldp	x10, x11, [sp, #80]
   810f0:	a94637ec 	ldp	x12, x13, [sp, #96]
   810f4:	a9473fee 	ldp	x14, x15, [sp, #112]
   810f8:	a94847f0 	ldp	x16, x17, [sp, #128]
   810fc:	a9494ff2 	ldp	x18, x19, [sp, #144]
   81100:	a94a57f4 	ldp	x20, x21, [sp, #160]
   81104:	a94b5ff6 	ldp	x22, x23, [sp, #176]
   81108:	a94c67f8 	ldp	x24, x25, [sp, #192]
   8110c:	a94d6ffa 	ldp	x26, x27, [sp, #208]
   81110:	a94e77fc 	ldp	x28, x29, [sp, #224]
   81114:	f9407bfe 	ldr	x30, [sp, #240]
   81118:	910403ff 	add	sp, sp, #0x100
   8111c:	d69f03e0 	eret

0000000000081120 <lowerEL_irq_handler>:
   81120:	d10403ff 	sub	sp, sp, #0x100
   81124:	a90007e0 	stp	x0, x1, [sp]
   81128:	a9010fe2 	stp	x2, x3, [sp, #16]
   8112c:	a90217e4 	stp	x4, x5, [sp, #32]
   81130:	a9031fe6 	stp	x6, x7, [sp, #48]
   81134:	a90427e8 	stp	x8, x9, [sp, #64]
   81138:	a9052fea 	stp	x10, x11, [sp, #80]
   8113c:	a90637ec 	stp	x12, x13, [sp, #96]
   81140:	a9073fee 	stp	x14, x15, [sp, #112]
   81144:	a90847f0 	stp	x16, x17, [sp, #128]
   81148:	a9094ff2 	stp	x18, x19, [sp, #144]
   8114c:	a90a57f4 	stp	x20, x21, [sp, #160]
   81150:	a90b5ff6 	stp	x22, x23, [sp, #176]
   81154:	a90c67f8 	stp	x24, x25, [sp, #192]
   81158:	a90d6ffa 	stp	x26, x27, [sp, #208]
   8115c:	a90e77fc 	stp	x28, x29, [sp, #224]
   81160:	f9007bfe 	str	x30, [sp, #240]
   81164:	94000729 	bl	82e08 <lowerEL_irq_router>
   81168:	a94007e0 	ldp	x0, x1, [sp]
   8116c:	a9410fe2 	ldp	x2, x3, [sp, #16]
   81170:	a94217e4 	ldp	x4, x5, [sp, #32]
   81174:	a9431fe6 	ldp	x6, x7, [sp, #48]
   81178:	a94427e8 	ldp	x8, x9, [sp, #64]
   8117c:	a9452fea 	ldp	x10, x11, [sp, #80]
   81180:	a94637ec 	ldp	x12, x13, [sp, #96]
   81184:	a9473fee 	ldp	x14, x15, [sp, #112]
   81188:	a94847f0 	ldp	x16, x17, [sp, #128]
   8118c:	a9494ff2 	ldp	x18, x19, [sp, #144]
   81190:	a94a57f4 	ldp	x20, x21, [sp, #160]
   81194:	a94b5ff6 	ldp	x22, x23, [sp, #176]
   81198:	a94c67f8 	ldp	x24, x25, [sp, #192]
   8119c:	a94d6ffa 	ldp	x26, x27, [sp, #208]
   811a0:	a94e77fc 	ldp	x28, x29, [sp, #224]
   811a4:	f9407bfe 	ldr	x30, [sp, #240]
   811a8:	910403ff 	add	sp, sp, #0x100
   811ac:	d69f03e0 	eret

00000000000811b0 <lowerEL_sync_handler>:
   811b0:	d10403ff 	sub	sp, sp, #0x100
   811b4:	a90007e0 	stp	x0, x1, [sp]
   811b8:	a9010fe2 	stp	x2, x3, [sp, #16]
   811bc:	a90217e4 	stp	x4, x5, [sp, #32]
   811c0:	a9031fe6 	stp	x6, x7, [sp, #48]
   811c4:	a90427e8 	stp	x8, x9, [sp, #64]
   811c8:	a9052fea 	stp	x10, x11, [sp, #80]
   811cc:	a90637ec 	stp	x12, x13, [sp, #96]
   811d0:	a9073fee 	stp	x14, x15, [sp, #112]
   811d4:	a90847f0 	stp	x16, x17, [sp, #128]
   811d8:	a9094ff2 	stp	x18, x19, [sp, #144]
   811dc:	a90a57f4 	stp	x20, x21, [sp, #160]
   811e0:	a90b5ff6 	stp	x22, x23, [sp, #176]
   811e4:	a90c67f8 	stp	x24, x25, [sp, #192]
   811e8:	a90d6ffa 	stp	x26, x27, [sp, #208]
   811ec:	a90e77fc 	stp	x28, x29, [sp, #224]
   811f0:	f9007bfe 	str	x30, [sp, #240]
   811f4:	940006e2 	bl	82d7c <lowerEL_sync_interrupt_handle>
   811f8:	a94007e0 	ldp	x0, x1, [sp]
   811fc:	a9410fe2 	ldp	x2, x3, [sp, #16]
   81200:	a94217e4 	ldp	x4, x5, [sp, #32]
   81204:	a9431fe6 	ldp	x6, x7, [sp, #48]
   81208:	a94427e8 	ldp	x8, x9, [sp, #64]
   8120c:	a9452fea 	ldp	x10, x11, [sp, #80]
   81210:	a94637ec 	ldp	x12, x13, [sp, #96]
   81214:	a9473fee 	ldp	x14, x15, [sp, #112]
   81218:	a94847f0 	ldp	x16, x17, [sp, #128]
   8121c:	a9494ff2 	ldp	x18, x19, [sp, #144]
   81220:	a94a57f4 	ldp	x20, x21, [sp, #160]
   81224:	a94b5ff6 	ldp	x22, x23, [sp, #176]
   81228:	a94c67f8 	ldp	x24, x25, [sp, #192]
   8122c:	a94d6ffa 	ldp	x26, x27, [sp, #208]
   81230:	a94e77fc 	ldp	x28, x29, [sp, #224]
   81234:	f9407bfe 	ldr	x30, [sp, #240]
   81238:	910403ff 	add	sp, sp, #0x100
   8123c:	d69f03e0 	eret
   81240:	0000544b 	.word	0x0000544b
   81244:	00000000 	.inst	0x00000000 ; undefined
   81248:	00080000 	.word	0x00080000
   8124c:	00000000 	.word	0x00000000
   81250:	00085990 	.word	0x00085990
   81254:	00000000 	.word	0x00000000

0000000000081258 <print_sys_info>:
   81258:	a9be7bfd 	stp	x29, x30, [sp, #-32]!
   8125c:	910003fd 	mov	x29, sp
   81260:	910073e0 	add	x0, sp, #0x1c
   81264:	9400045d 	bl	823d8 <get_board_revision>
   81268:	f0000000 	adrp	x0, 84000 <buddy_merge+0xb0>
   8126c:	91208000 	add	x0, x0, #0x820
   81270:	940002c5 	bl	81d84 <uart_puts>
   81274:	b9401fe0 	ldr	w0, [sp, #28]
   81278:	940002da 	bl	81de0 <uart_hex>
   8127c:	910053e1 	add	x1, sp, #0x14
   81280:	910063e0 	add	x0, sp, #0x18
   81284:	9400047b 	bl	82470 <get_arm_memory>
   81288:	f0000000 	adrp	x0, 84000 <buddy_merge+0xb0>
   8128c:	9120e000 	add	x0, x0, #0x838
   81290:	940002bd 	bl	81d84 <uart_puts>
   81294:	b9401be0 	ldr	w0, [sp, #24]
   81298:	940002d2 	bl	81de0 <uart_hex>
   8129c:	f0000000 	adrp	x0, 84000 <buddy_merge+0xb0>
   812a0:	91212000 	add	x0, x0, #0x848
   812a4:	940002b8 	bl	81d84 <uart_puts>
   812a8:	b94017e0 	ldr	w0, [sp, #20]
   812ac:	940002cd 	bl	81de0 <uart_hex>
   812b0:	f0000000 	adrp	x0, 84000 <buddy_merge+0xb0>
   812b4:	91216000 	add	x0, x0, #0x858
   812b8:	940002b3 	bl	81d84 <uart_puts>
   812bc:	d503201f 	nop
   812c0:	a8c27bfd 	ldp	x29, x30, [sp], #32
   812c4:	d65f03c0 	ret

00000000000812c8 <welcome_msg>:
   812c8:	a9be7bfd 	stp	x29, x30, [sp, #-32]!
   812cc:	910003fd 	mov	x29, sp
   812d0:	f0000000 	adrp	x0, 84000 <buddy_merge+0xb0>
   812d4:	91218000 	add	x0, x0, #0x860
   812d8:	f9000fe0 	str	x0, [sp, #24]
   812dc:	f9400fe0 	ldr	x0, [sp, #24]
   812e0:	940002a9 	bl	81d84 <uart_puts>
   812e4:	d503201f 	nop
   812e8:	a8c27bfd 	ldp	x29, x30, [sp], #32
   812ec:	d65f03c0 	ret

00000000000812f0 <helper>:
   812f0:	a9bf7bfd 	stp	x29, x30, [sp, #-16]!
   812f4:	910003fd 	mov	x29, sp
   812f8:	f0000000 	adrp	x0, 84000 <buddy_merge+0xb0>
   812fc:	91226000 	add	x0, x0, #0x898
   81300:	940002a1 	bl	81d84 <uart_puts>
   81304:	f0000000 	adrp	x0, 84000 <buddy_merge+0xb0>
   81308:	91234000 	add	x0, x0, #0x8d0
   8130c:	9400029e 	bl	81d84 <uart_puts>
   81310:	f0000000 	adrp	x0, 84000 <buddy_merge+0xb0>
   81314:	9123e000 	add	x0, x0, #0x8f8
   81318:	9400029b 	bl	81d84 <uart_puts>
   8131c:	f0000000 	adrp	x0, 84000 <buddy_merge+0xb0>
   81320:	91248000 	add	x0, x0, #0x920
   81324:	94000298 	bl	81d84 <uart_puts>
   81328:	f0000000 	adrp	x0, 84000 <buddy_merge+0xb0>
   8132c:	91252000 	add	x0, x0, #0x948
   81330:	94000295 	bl	81d84 <uart_puts>
   81334:	f0000000 	adrp	x0, 84000 <buddy_merge+0xb0>
   81338:	9125e000 	add	x0, x0, #0x978
   8133c:	94000292 	bl	81d84 <uart_puts>
   81340:	f0000000 	adrp	x0, 84000 <buddy_merge+0xb0>
   81344:	9126a000 	add	x0, x0, #0x9a8
   81348:	9400028f 	bl	81d84 <uart_puts>
   8134c:	f0000000 	adrp	x0, 84000 <buddy_merge+0xb0>
   81350:	91276000 	add	x0, x0, #0x9d8
   81354:	9400028c 	bl	81d84 <uart_puts>
   81358:	f0000000 	adrp	x0, 84000 <buddy_merge+0xb0>
   8135c:	91280000 	add	x0, x0, #0xa00
   81360:	94000289 	bl	81d84 <uart_puts>
   81364:	f0000000 	adrp	x0, 84000 <buddy_merge+0xb0>
   81368:	9128c000 	add	x0, x0, #0xa30
   8136c:	94000286 	bl	81d84 <uart_puts>
   81370:	f0000000 	adrp	x0, 84000 <buddy_merge+0xb0>
   81374:	91296000 	add	x0, x0, #0xa58
   81378:	94000283 	bl	81d84 <uart_puts>
   8137c:	f0000000 	adrp	x0, 84000 <buddy_merge+0xb0>
   81380:	912a2000 	add	x0, x0, #0xa88
   81384:	94000280 	bl	81d84 <uart_puts>
   81388:	f0000000 	adrp	x0, 84000 <buddy_merge+0xb0>
   8138c:	912b0000 	add	x0, x0, #0xac0
   81390:	9400027d 	bl	81d84 <uart_puts>
   81394:	f0000000 	adrp	x0, 84000 <buddy_merge+0xb0>
   81398:	912be000 	add	x0, x0, #0xaf8
   8139c:	9400027a 	bl	81d84 <uart_puts>
   813a0:	f0000000 	adrp	x0, 84000 <buddy_merge+0xb0>
   813a4:	912ca000 	add	x0, x0, #0xb28
   813a8:	94000277 	bl	81d84 <uart_puts>
   813ac:	f0000000 	adrp	x0, 84000 <buddy_merge+0xb0>
   813b0:	91226000 	add	x0, x0, #0x898
   813b4:	94000274 	bl	81d84 <uart_puts>
   813b8:	d503201f 	nop
   813bc:	a8c17bfd 	ldp	x29, x30, [sp], #16
   813c0:	d65f03c0 	ret

00000000000813c4 <cmd_handler>:
   813c4:	a9a97bfd 	stp	x29, x30, [sp, #-368]!
   813c8:	910003fd 	mov	x29, sp
   813cc:	f9000fe0 	str	x0, [sp, #24]
   813d0:	f0000000 	adrp	x0, 84000 <buddy_merge+0xb0>
   813d4:	912d8000 	add	x0, x0, #0xb60
   813d8:	9400026b 	bl	81d84 <uart_puts>
   813dc:	f0000000 	adrp	x0, 84000 <buddy_merge+0xb0>
   813e0:	912da001 	add	x1, x0, #0xb68
   813e4:	f9400fe0 	ldr	x0, [sp, #24]
   813e8:	94000169 	bl	8198c <strcmp>
   813ec:	7100001f 	cmp	w0, #0x0
   813f0:	54000061 	b.ne	813fc <cmd_handler+0x38>  // b.any
   813f4:	97ffffbf 	bl	812f0 <helper>
   813f8:	1400012b 	b	818a4 <cmd_handler+0x4e0>
   813fc:	f0000000 	adrp	x0, 84000 <buddy_merge+0xb0>
   81400:	912dc001 	add	x1, x0, #0xb70
   81404:	f9400fe0 	ldr	x0, [sp, #24]
   81408:	94000161 	bl	8198c <strcmp>
   8140c:	7100001f 	cmp	w0, #0x0
   81410:	540000a1 	b.ne	81424 <cmd_handler+0x60>  // b.any
   81414:	f0000000 	adrp	x0, 84000 <buddy_merge+0xb0>
   81418:	912de000 	add	x0, x0, #0xb78
   8141c:	9400025a 	bl	81d84 <uart_puts>
   81420:	14000121 	b	818a4 <cmd_handler+0x4e0>
   81424:	f0000000 	adrp	x0, 84000 <buddy_merge+0xb0>
   81428:	912e2001 	add	x1, x0, #0xb88
   8142c:	f9400fe0 	ldr	x0, [sp, #24]
   81430:	94000157 	bl	8198c <strcmp>
   81434:	7100001f 	cmp	w0, #0x0
   81438:	540000e1 	b.ne	81454 <cmd_handler+0x90>  // b.any
   8143c:	f0000000 	adrp	x0, 84000 <buddy_merge+0xb0>
   81440:	912e4000 	add	x0, x0, #0xb90
   81444:	94000250 	bl	81d84 <uart_puts>
   81448:	52800c80 	mov	w0, #0x64                  	// #100
   8144c:	9400039b 	bl	822b8 <reset>
   81450:	14000115 	b	818a4 <cmd_handler+0x4e0>
   81454:	f0000000 	adrp	x0, 84000 <buddy_merge+0xb0>
   81458:	912ec001 	add	x1, x0, #0xbb0
   8145c:	f9400fe0 	ldr	x0, [sp, #24]
   81460:	9400014b 	bl	8198c <strcmp>
   81464:	7100001f 	cmp	w0, #0x0
   81468:	540000a1 	b.ne	8147c <cmd_handler+0xb8>  // b.any
   8146c:	f0000000 	adrp	x0, 84000 <buddy_merge+0xb0>
   81470:	912d8000 	add	x0, x0, #0xb60
   81474:	94000244 	bl	81d84 <uart_puts>
   81478:	1400010b 	b	818a4 <cmd_handler+0x4e0>
   8147c:	f0000000 	adrp	x0, 84000 <buddy_merge+0xb0>
   81480:	912ee001 	add	x1, x0, #0xbb8
   81484:	f9400fe0 	ldr	x0, [sp, #24]
   81488:	94000141 	bl	8198c <strcmp>
   8148c:	7100001f 	cmp	w0, #0x0
   81490:	54000061 	b.ne	8149c <cmd_handler+0xd8>  // b.any
   81494:	97ffff71 	bl	81258 <print_sys_info>
   81498:	14000103 	b	818a4 <cmd_handler+0x4e0>
   8149c:	f0000000 	adrp	x0, 84000 <buddy_merge+0xb0>
   814a0:	912f0001 	add	x1, x0, #0xbc0
   814a4:	f9400fe0 	ldr	x0, [sp, #24]
   814a8:	94000139 	bl	8198c <strcmp>
   814ac:	7100001f 	cmp	w0, #0x0
   814b0:	540000e1 	b.ne	814cc <cmd_handler+0x108>  // b.any
   814b4:	90000020 	adrp	x0, 85000 <main+0x83c>
   814b8:	f944a000 	ldr	x0, [x0, #2368]
   814bc:	b9400000 	ldr	w0, [x0]
   814c0:	2a0003e0 	mov	w0, w0
   814c4:	94000463 	bl	82650 <cpio_ls>
   814c8:	140000f7 	b	818a4 <cmd_handler+0x4e0>
   814cc:	f0000000 	adrp	x0, 84000 <buddy_merge+0xb0>
   814d0:	912f2001 	add	x1, x0, #0xbc8
   814d4:	f9400fe0 	ldr	x0, [sp, #24]
   814d8:	9400012d 	bl	8198c <strcmp>
   814dc:	7100001f 	cmp	w0, #0x0
   814e0:	54000261 	b.ne	8152c <cmd_handler+0x168>  // b.any
   814e4:	f0000000 	adrp	x0, 84000 <buddy_merge+0xb0>
   814e8:	912f4000 	add	x0, x0, #0xbd0
   814ec:	94000226 	bl	81d84 <uart_puts>
   814f0:	9100a3e0 	add	x0, sp, #0x28
   814f4:	940000f2 	bl	818bc <cmd_reader>
   814f8:	f0000000 	adrp	x0, 84000 <buddy_merge+0xb0>
   814fc:	912f8000 	add	x0, x0, #0xbe0
   81500:	94000221 	bl	81d84 <uart_puts>
   81504:	90000020 	adrp	x0, 85000 <main+0x83c>
   81508:	f944a000 	ldr	x0, [x0, #2368]
   8150c:	b9400000 	ldr	w0, [x0]
   81510:	2a0003e0 	mov	w0, w0
   81514:	aa0003e2 	mov	x2, x0
   81518:	9100a3e0 	add	x0, sp, #0x28
   8151c:	aa0003e1 	mov	x1, x0
   81520:	aa0203e0 	mov	x0, x2
   81524:	9400046a 	bl	826cc <cpio_cat>
   81528:	140000df 	b	818a4 <cmd_handler+0x4e0>
   8152c:	f0000000 	adrp	x0, 84000 <buddy_merge+0xb0>
   81530:	912fa001 	add	x1, x0, #0xbe8
   81534:	f9400fe0 	ldr	x0, [sp, #24]
   81538:	94000115 	bl	8198c <strcmp>
   8153c:	7100001f 	cmp	w0, #0x0
   81540:	54000281 	b.ne	81590 <cmd_handler+0x1cc>  // b.any
   81544:	f0000000 	adrp	x0, 84000 <buddy_merge+0xb0>
   81548:	912f4000 	add	x0, x0, #0xbd0
   8154c:	9400020e 	bl	81d84 <uart_puts>
   81550:	9100a3e0 	add	x0, sp, #0x28
   81554:	940000da 	bl	818bc <cmd_reader>
   81558:	f0000000 	adrp	x0, 84000 <buddy_merge+0xb0>
   8155c:	912f8000 	add	x0, x0, #0xbe0
   81560:	94000209 	bl	81d84 <uart_puts>
   81564:	90000020 	adrp	x0, 85000 <main+0x83c>
   81568:	f944a000 	ldr	x0, [x0, #2368]
   8156c:	b9400000 	ldr	w0, [x0]
   81570:	2a0003e0 	mov	w0, w0
   81574:	aa0003e3 	mov	x3, x0
   81578:	9100a3e0 	add	x0, sp, #0x28
   8157c:	52800002 	mov	w2, #0x0                   	// #0
   81580:	aa0003e1 	mov	x1, x0
   81584:	aa0303e0 	mov	x0, x3
   81588:	940005b2 	bl	82c50 <exec>
   8158c:	140000c6 	b	818a4 <cmd_handler+0x4e0>
   81590:	f0000000 	adrp	x0, 84000 <buddy_merge+0xb0>
   81594:	912fc001 	add	x1, x0, #0xbf0
   81598:	f9400fe0 	ldr	x0, [sp, #24]
   8159c:	940000fc 	bl	8198c <strcmp>
   815a0:	7100001f 	cmp	w0, #0x0
   815a4:	54000181 	b.ne	815d4 <cmd_handler+0x210>  // b.any
   815a8:	90000020 	adrp	x0, 85000 <main+0x83c>
   815ac:	f944a000 	ldr	x0, [x0, #2368]
   815b0:	b9400000 	ldr	w0, [x0]
   815b4:	2a0003e0 	mov	w0, w0
   815b8:	aa0003e3 	mov	x3, x0
   815bc:	52800022 	mov	w2, #0x1                   	// #1
   815c0:	f0000000 	adrp	x0, 84000 <buddy_merge+0xb0>
   815c4:	91300001 	add	x1, x0, #0xc00
   815c8:	aa0303e0 	mov	x0, x3
   815cc:	940005a1 	bl	82c50 <exec>
   815d0:	140000b5 	b	818a4 <cmd_handler+0x4e0>
   815d4:	f0000000 	adrp	x0, 84000 <buddy_merge+0xb0>
   815d8:	91306001 	add	x1, x0, #0xc18
   815dc:	f9400fe0 	ldr	x0, [sp, #24]
   815e0:	940000eb 	bl	8198c <strcmp>
   815e4:	7100001f 	cmp	w0, #0x0
   815e8:	54000101 	b.ne	81608 <cmd_handler+0x244>  // b.any
   815ec:	f0000000 	adrp	x0, 84000 <buddy_merge+0xb0>
   815f0:	9130a000 	add	x0, x0, #0xc28
   815f4:	940002ea 	bl	8219c <uart_async_puts>
   815f8:	f0000000 	adrp	x0, 84000 <buddy_merge+0xb0>
   815fc:	912f8000 	add	x0, x0, #0xbe0
   81600:	940001e1 	bl	81d84 <uart_puts>
   81604:	140000a8 	b	818a4 <cmd_handler+0x4e0>
   81608:	f0000000 	adrp	x0, 84000 <buddy_merge+0xb0>
   8160c:	91310001 	add	x1, x0, #0xc40
   81610:	f9400fe0 	ldr	x0, [sp, #24]
   81614:	940000de 	bl	8198c <strcmp>
   81618:	7100001f 	cmp	w0, #0x0
   8161c:	54000181 	b.ne	8164c <cmd_handler+0x288>  // b.any
   81620:	940002ba 	bl	82108 <uart_async_getc>
   81624:	3904ffe0 	strb	w0, [sp, #319]
   81628:	f0000000 	adrp	x0, 84000 <buddy_merge+0xb0>
   8162c:	91314000 	add	x0, x0, #0xc50
   81630:	940001d5 	bl	81d84 <uart_puts>
   81634:	3944ffe0 	ldrb	w0, [sp, #319]
   81638:	940001ea 	bl	81de0 <uart_hex>
   8163c:	f0000000 	adrp	x0, 84000 <buddy_merge+0xb0>
   81640:	912f8000 	add	x0, x0, #0xbe0
   81644:	940001d0 	bl	81d84 <uart_puts>
   81648:	14000097 	b	818a4 <cmd_handler+0x4e0>
   8164c:	52800142 	mov	w2, #0xa                   	// #10
   81650:	f0000000 	adrp	x0, 84000 <buddy_merge+0xb0>
   81654:	9131c001 	add	x1, x0, #0xc70
   81658:	f9400fe0 	ldr	x0, [sp, #24]
   8165c:	940000e8 	bl	819fc <strncmp>
   81660:	7100001f 	cmp	w0, #0x0
   81664:	54000a61 	b.ne	817b0 <cmd_handler+0x3ec>  // b.any
   81668:	b9016fff 	str	wzr, [sp, #364]
   8166c:	910803e0 	add	x0, sp, #0x200
   81670:	a932fc1f 	stp	xzr, xzr, [x0, #-216]
   81674:	b9013bff 	str	wzr, [sp, #312]
   81678:	52800160 	mov	w0, #0xb                   	// #11
   8167c:	b9016be0 	str	w0, [sp, #360]
   81680:	1400003f 	b	8177c <cmd_handler+0x3b8>
   81684:	b9816be0 	ldrsw	x0, [sp, #360]
   81688:	f9400fe1 	ldr	x1, [sp, #24]
   8168c:	8b000020 	add	x0, x1, x0
   81690:	39400000 	ldrb	w0, [x0]
   81694:	7100801f 	cmp	w0, #0x20
   81698:	54000160 	b.eq	816c4 <cmd_handler+0x300>  // b.none
   8169c:	b9816be0 	ldrsw	x0, [sp, #360]
   816a0:	f9400fe1 	ldr	x1, [sp, #24]
   816a4:	8b000020 	add	x0, x1, x0
   816a8:	b9416be1 	ldr	w1, [sp, #360]
   816ac:	51002c21 	sub	w1, w1, #0xb
   816b0:	39400002 	ldrb	w2, [x0]
   816b4:	93407c20 	sxtw	x0, w1
   816b8:	9104a3e1 	add	x1, sp, #0x128
   816bc:	38206822 	strb	w2, [x1, x0]
   816c0:	1400002c 	b	81770 <cmd_handler+0x3ac>
   816c4:	b9416be0 	ldr	w0, [sp, #360]
   816c8:	51002c00 	sub	w0, w0, #0xb
   816cc:	93407c00 	sxtw	x0, w0
   816d0:	9104a3e1 	add	x1, sp, #0x128
   816d4:	3820683f 	strb	wzr, [x1, x0]
   816d8:	b9416be0 	ldr	w0, [sp, #360]
   816dc:	11000400 	add	w0, w0, #0x1
   816e0:	b90167e0 	str	w0, [sp, #356]
   816e4:	1400001d 	b	81758 <cmd_handler+0x394>
   816e8:	b98167e0 	ldrsw	x0, [sp, #356]
   816ec:	f9400fe1 	ldr	x1, [sp, #24]
   816f0:	8b000020 	add	x0, x1, x0
   816f4:	39400000 	ldrb	w0, [x0]
   816f8:	7100bc1f 	cmp	w0, #0x2f
   816fc:	54000289 	b.ls	8174c <cmd_handler+0x388>  // b.plast
   81700:	b98167e0 	ldrsw	x0, [sp, #356]
   81704:	f9400fe1 	ldr	x1, [sp, #24]
   81708:	8b000020 	add	x0, x1, x0
   8170c:	39400000 	ldrb	w0, [x0]
   81710:	7100e41f 	cmp	w0, #0x39
   81714:	540001c8 	b.hi	8174c <cmd_handler+0x388>  // b.pmore
   81718:	b9416fe1 	ldr	w1, [sp, #364]
   8171c:	2a0103e0 	mov	w0, w1
   81720:	531e7400 	lsl	w0, w0, #2
   81724:	0b010000 	add	w0, w0, w1
   81728:	531f7800 	lsl	w0, w0, #1
   8172c:	2a0003e2 	mov	w2, w0
   81730:	b98167e0 	ldrsw	x0, [sp, #356]
   81734:	f9400fe1 	ldr	x1, [sp, #24]
   81738:	8b000020 	add	x0, x1, x0
   8173c:	39400000 	ldrb	w0, [x0]
   81740:	0b000040 	add	w0, w2, w0
   81744:	5100c000 	sub	w0, w0, #0x30
   81748:	b9016fe0 	str	w0, [sp, #364]
   8174c:	b94167e0 	ldr	w0, [sp, #356]
   81750:	11000400 	add	w0, w0, #0x1
   81754:	b90167e0 	str	w0, [sp, #356]
   81758:	b98167e0 	ldrsw	x0, [sp, #356]
   8175c:	f9400fe1 	ldr	x1, [sp, #24]
   81760:	8b000020 	add	x0, x1, x0
   81764:	39400000 	ldrb	w0, [x0]
   81768:	7100001f 	cmp	w0, #0x0
   8176c:	54fffbe1 	b.ne	816e8 <cmd_handler+0x324>  // b.any
   81770:	b9416be0 	ldr	w0, [sp, #360]
   81774:	11000400 	add	w0, w0, #0x1
   81778:	b9016be0 	str	w0, [sp, #360]
   8177c:	b9816be0 	ldrsw	x0, [sp, #360]
   81780:	f9400fe1 	ldr	x1, [sp, #24]
   81784:	8b000020 	add	x0, x1, x0
   81788:	39400000 	ldrb	w0, [x0]
   8178c:	7100001f 	cmp	w0, #0x0
   81790:	54fff7a1 	b.ne	81684 <cmd_handler+0x2c0>  // b.any
   81794:	9104a3e0 	add	x0, sp, #0x128
   81798:	b9416fe2 	ldr	w2, [sp, #364]
   8179c:	aa0003e1 	mov	x1, x0
   817a0:	90000020 	adrp	x0, 85000 <main+0x83c>
   817a4:	f9448000 	ldr	x0, [x0, #2304]
   817a8:	9400065d 	bl	8311c <add_timer>
   817ac:	1400003e 	b	818a4 <cmd_handler+0x4e0>
   817b0:	f0000000 	adrp	x0, 84000 <buddy_merge+0xb0>
   817b4:	91320001 	add	x1, x0, #0xc80
   817b8:	f9400fe0 	ldr	x0, [sp, #24]
   817bc:	94000074 	bl	8198c <strcmp>
   817c0:	7100001f 	cmp	w0, #0x0
   817c4:	54000281 	b.ne	81814 <cmd_handler+0x450>  // b.any
   817c8:	d2820000 	mov	x0, #0x1000                	// #4096
   817cc:	94000b7f 	bl	845c8 <kmalloc>
   817d0:	f900a7e0 	str	x0, [sp, #328]
   817d4:	d2820000 	mov	x0, #0x1000                	// #4096
   817d8:	94000b7c 	bl	845c8 <kmalloc>
   817dc:	f900a3e0 	str	x0, [sp, #320]
   817e0:	94000936 	bl	83cb8 <buddy_info>
   817e4:	f0000000 	adrp	x0, 84000 <buddy_merge+0xb0>
   817e8:	91324000 	add	x0, x0, #0xc90
   817ec:	94000166 	bl	81d84 <uart_puts>
   817f0:	f940a7e0 	ldr	x0, [sp, #328]
   817f4:	94000bb5 	bl	846c8 <kfree>
   817f8:	f940a3e0 	ldr	x0, [sp, #320]
   817fc:	94000bb3 	bl	846c8 <kfree>
   81800:	9400092e 	bl	83cb8 <buddy_info>
   81804:	f0000000 	adrp	x0, 84000 <buddy_merge+0xb0>
   81808:	9132a000 	add	x0, x0, #0xca8
   8180c:	9400015e 	bl	81d84 <uart_puts>
   81810:	14000025 	b	818a4 <cmd_handler+0x4e0>
   81814:	f0000000 	adrp	x0, 84000 <buddy_merge+0xb0>
   81818:	91330001 	add	x1, x0, #0xcc0
   8181c:	f9400fe0 	ldr	x0, [sp, #24]
   81820:	9400005b 	bl	8198c <strcmp>
   81824:	7100001f 	cmp	w0, #0x0
   81828:	54000281 	b.ne	81878 <cmd_handler+0x4b4>  // b.any
   8182c:	d2802000 	mov	x0, #0x100                 	// #256
   81830:	94000b66 	bl	845c8 <kmalloc>
   81834:	f900afe0 	str	x0, [sp, #344]
   81838:	d2802000 	mov	x0, #0x100                 	// #256
   8183c:	94000b63 	bl	845c8 <kmalloc>
   81840:	f900abe0 	str	x0, [sp, #336]
   81844:	9400091d 	bl	83cb8 <buddy_info>
   81848:	f0000000 	adrp	x0, 84000 <buddy_merge+0xb0>
   8184c:	91324000 	add	x0, x0, #0xc90
   81850:	9400014d 	bl	81d84 <uart_puts>
   81854:	f940afe0 	ldr	x0, [sp, #344]
   81858:	94000b9c 	bl	846c8 <kfree>
   8185c:	f940abe0 	ldr	x0, [sp, #336]
   81860:	94000b9a 	bl	846c8 <kfree>
   81864:	94000915 	bl	83cb8 <buddy_info>
   81868:	f0000000 	adrp	x0, 84000 <buddy_merge+0xb0>
   8186c:	9132a000 	add	x0, x0, #0xca8
   81870:	94000145 	bl	81d84 <uart_puts>
   81874:	1400000c 	b	818a4 <cmd_handler+0x4e0>
   81878:	f0000000 	adrp	x0, 84000 <buddy_merge+0xb0>
   8187c:	91334001 	add	x1, x0, #0xcd0
   81880:	f9400fe0 	ldr	x0, [sp, #24]
   81884:	94000042 	bl	8198c <strcmp>
   81888:	7100001f 	cmp	w0, #0x0
   8188c:	54000061 	b.ne	81898 <cmd_handler+0x4d4>  // b.any
   81890:	9400090a 	bl	83cb8 <buddy_info>
   81894:	14000004 	b	818a4 <cmd_handler+0x4e0>
   81898:	f0000000 	adrp	x0, 84000 <buddy_merge+0xb0>
   8189c:	91338000 	add	x0, x0, #0xce0
   818a0:	94000139 	bl	81d84 <uart_puts>
   818a4:	f0000000 	adrp	x0, 84000 <buddy_merge+0xb0>
   818a8:	91216000 	add	x0, x0, #0x858
   818ac:	94000136 	bl	81d84 <uart_puts>
   818b0:	d503201f 	nop
   818b4:	a8d77bfd 	ldp	x29, x30, [sp], #368
   818b8:	d65f03c0 	ret

00000000000818bc <cmd_reader>:
   818bc:	a9bd7bfd 	stp	x29, x30, [sp, #-48]!
   818c0:	910003fd 	mov	x29, sp
   818c4:	f9000fe0 	str	x0, [sp, #24]
   818c8:	b9002fff 	str	wzr, [sp, #44]
   818cc:	9400011a 	bl	81d34 <uart_getc>
   818d0:	3900afe0 	strb	w0, [sp, #43]
   818d4:	3940afe0 	ldrb	w0, [sp, #43]
   818d8:	7100341f 	cmp	w0, #0xd
   818dc:	54000360 	b.eq	81948 <cmd_reader+0x8c>  // b.none
   818e0:	3940afe0 	ldrb	w0, [sp, #43]
   818e4:	94000104 	bl	81cf4 <uart_send>
   818e8:	b9402fe0 	ldr	w0, [sp, #44]
   818ec:	11000401 	add	w1, w0, #0x1
   818f0:	b9002fe1 	str	w1, [sp, #44]
   818f4:	2a0003e0 	mov	w0, w0
   818f8:	f9400fe1 	ldr	x1, [sp, #24]
   818fc:	8b000020 	add	x0, x1, x0
   81900:	3940afe1 	ldrb	w1, [sp, #43]
   81904:	39000001 	strb	w1, [x0]
   81908:	b9402fe2 	ldr	w2, [sp, #44]
   8190c:	b9402fe1 	ldr	w1, [sp, #44]
   81910:	52801fe0 	mov	w0, #0xff                  	// #255
   81914:	7103fc5f 	cmp	w2, #0xff
   81918:	1a809020 	csel	w0, w1, w0, ls  // ls = plast
   8191c:	b9002fe0 	str	w0, [sp, #44]
   81920:	3940afe0 	ldrb	w0, [sp, #43]
   81924:	7100281f 	cmp	w0, #0xa
   81928:	54fffd21 	b.ne	818cc <cmd_reader+0x10>  // b.any
   8192c:	b9402fe0 	ldr	w0, [sp, #44]
   81930:	51000400 	sub	w0, w0, #0x1
   81934:	2a0003e0 	mov	w0, w0
   81938:	f9400fe1 	ldr	x1, [sp, #24]
   8193c:	8b000020 	add	x0, x1, x0
   81940:	3900001f 	strb	wzr, [x0]
   81944:	14000003 	b	81950 <cmd_reader+0x94>
   81948:	d503201f 	nop
   8194c:	17ffffe0 	b	818cc <cmd_reader+0x10>
   81950:	d503201f 	nop
   81954:	a8c37bfd 	ldp	x29, x30, [sp], #48
   81958:	d65f03c0 	ret

000000000008195c <exe_shell>:
   8195c:	a9af7bfd 	stp	x29, x30, [sp, #-272]!
   81960:	910003fd 	mov	x29, sp
   81964:	97fffe3d 	bl	81258 <print_sys_info>
   81968:	97fffe58 	bl	812c8 <welcome_msg>
   8196c:	f0000000 	adrp	x0, 84000 <buddy_merge+0xb0>
   81970:	9133e000 	add	x0, x0, #0xcf8
   81974:	94000104 	bl	81d84 <uart_puts>
   81978:	910043e0 	add	x0, sp, #0x10
   8197c:	97ffffd0 	bl	818bc <cmd_reader>
   81980:	910043e0 	add	x0, sp, #0x10
   81984:	97fffe90 	bl	813c4 <cmd_handler>
   81988:	17fffff9 	b	8196c <exe_shell+0x10>

000000000008198c <strcmp>:
   8198c:	d10043ff 	sub	sp, sp, #0x10
   81990:	f90007e0 	str	x0, [sp, #8]
   81994:	f90003e1 	str	x1, [sp]
   81998:	14000007 	b	819b4 <strcmp+0x28>
   8199c:	f94007e0 	ldr	x0, [sp, #8]
   819a0:	91000400 	add	x0, x0, #0x1
   819a4:	f90007e0 	str	x0, [sp, #8]
   819a8:	f94003e0 	ldr	x0, [sp]
   819ac:	91000400 	add	x0, x0, #0x1
   819b0:	f90003e0 	str	x0, [sp]
   819b4:	f94007e0 	ldr	x0, [sp, #8]
   819b8:	39400000 	ldrb	w0, [x0]
   819bc:	7100001f 	cmp	w0, #0x0
   819c0:	540000e0 	b.eq	819dc <strcmp+0x50>  // b.none
   819c4:	f94007e0 	ldr	x0, [sp, #8]
   819c8:	39400001 	ldrb	w1, [x0]
   819cc:	f94003e0 	ldr	x0, [sp]
   819d0:	39400000 	ldrb	w0, [x0]
   819d4:	6b00003f 	cmp	w1, w0
   819d8:	54fffe20 	b.eq	8199c <strcmp+0x10>  // b.none
   819dc:	f94007e0 	ldr	x0, [sp, #8]
   819e0:	39400000 	ldrb	w0, [x0]
   819e4:	2a0003e1 	mov	w1, w0
   819e8:	f94003e0 	ldr	x0, [sp]
   819ec:	39400000 	ldrb	w0, [x0]
   819f0:	4b000020 	sub	w0, w1, w0
   819f4:	910043ff 	add	sp, sp, #0x10
   819f8:	d65f03c0 	ret

00000000000819fc <strncmp>:
   819fc:	d100c3ff 	sub	sp, sp, #0x30
   81a00:	f9000fe0 	str	x0, [sp, #24]
   81a04:	f9000be1 	str	x1, [sp, #16]
   81a08:	b9000fe2 	str	w2, [sp, #12]
   81a0c:	1400001d 	b	81a80 <strncmp+0x84>
   81a10:	f9400fe0 	ldr	x0, [sp, #24]
   81a14:	91000401 	add	x1, x0, #0x1
   81a18:	f9000fe1 	str	x1, [sp, #24]
   81a1c:	39400000 	ldrb	w0, [x0]
   81a20:	3900bfe0 	strb	w0, [sp, #47]
   81a24:	f9400be0 	ldr	x0, [sp, #16]
   81a28:	91000401 	add	x1, x0, #0x1
   81a2c:	f9000be1 	str	x1, [sp, #16]
   81a30:	39400000 	ldrb	w0, [x0]
   81a34:	3900bbe0 	strb	w0, [sp, #46]
   81a38:	3940bfe1 	ldrb	w1, [sp, #47]
   81a3c:	3940bbe0 	ldrb	w0, [sp, #46]
   81a40:	6b00003f 	cmp	w1, w0
   81a44:	54000120 	b.eq	81a68 <strncmp+0x6c>  // b.none
   81a48:	3940bfe1 	ldrb	w1, [sp, #47]
   81a4c:	3940bbe0 	ldrb	w0, [sp, #46]
   81a50:	6b00003f 	cmp	w1, w0
   81a54:	54000062 	b.cs	81a60 <strncmp+0x64>  // b.hs, b.nlast
   81a58:	12800000 	mov	w0, #0xffffffff            	// #-1
   81a5c:	1400000f 	b	81a98 <strncmp+0x9c>
   81a60:	52800020 	mov	w0, #0x1                   	// #1
   81a64:	1400000d 	b	81a98 <strncmp+0x9c>
   81a68:	3940bfe0 	ldrb	w0, [sp, #47]
   81a6c:	7100001f 	cmp	w0, #0x0
   81a70:	54000100 	b.eq	81a90 <strncmp+0x94>  // b.none
   81a74:	b9400fe0 	ldr	w0, [sp, #12]
   81a78:	51000400 	sub	w0, w0, #0x1
   81a7c:	b9000fe0 	str	w0, [sp, #12]
   81a80:	b9400fe0 	ldr	w0, [sp, #12]
   81a84:	7100001f 	cmp	w0, #0x0
   81a88:	54fffc41 	b.ne	81a10 <strncmp+0x14>  // b.any
   81a8c:	14000002 	b	81a94 <strncmp+0x98>
   81a90:	d503201f 	nop
   81a94:	52800000 	mov	w0, #0x0                   	// #0
   81a98:	9100c3ff 	add	sp, sp, #0x30
   81a9c:	d65f03c0 	ret

0000000000081aa0 <hexStr2int>:
   81aa0:	d10083ff 	sub	sp, sp, #0x20
   81aa4:	f90007e0 	str	x0, [sp, #8]
   81aa8:	b90007e1 	str	w1, [sp, #4]
   81aac:	f9000fff 	str	xzr, [sp, #24]
   81ab0:	1400002d 	b	81b64 <hexStr2int+0xc4>
   81ab4:	f94007e0 	ldr	x0, [sp, #8]
   81ab8:	91000401 	add	x1, x0, #0x1
   81abc:	f90007e1 	str	x1, [sp, #8]
   81ac0:	39400000 	ldrb	w0, [x0]
   81ac4:	b90017e0 	str	w0, [sp, #20]
   81ac8:	b94017e0 	ldr	w0, [sp, #20]
   81acc:	7100bc1f 	cmp	w0, #0x2f
   81ad0:	5400010d 	b.le	81af0 <hexStr2int+0x50>
   81ad4:	b94017e0 	ldr	w0, [sp, #20]
   81ad8:	7100e41f 	cmp	w0, #0x39
   81adc:	540000ac 	b.gt	81af0 <hexStr2int+0x50>
   81ae0:	b94017e0 	ldr	w0, [sp, #20]
   81ae4:	5100c000 	sub	w0, w0, #0x30
   81ae8:	b90017e0 	str	w0, [sp, #20]
   81aec:	14000014 	b	81b3c <hexStr2int+0x9c>
   81af0:	b94017e0 	ldr	w0, [sp, #20]
   81af4:	7101801f 	cmp	w0, #0x60
   81af8:	5400010d 	b.le	81b18 <hexStr2int+0x78>
   81afc:	b94017e0 	ldr	w0, [sp, #20]
   81b00:	7101981f 	cmp	w0, #0x66
   81b04:	540000ac 	b.gt	81b18 <hexStr2int+0x78>
   81b08:	b94017e0 	ldr	w0, [sp, #20]
   81b0c:	51015c00 	sub	w0, w0, #0x57
   81b10:	b90017e0 	str	w0, [sp, #20]
   81b14:	1400000a 	b	81b3c <hexStr2int+0x9c>
   81b18:	b94017e0 	ldr	w0, [sp, #20]
   81b1c:	7101001f 	cmp	w0, #0x40
   81b20:	540000ed 	b.le	81b3c <hexStr2int+0x9c>
   81b24:	b94017e0 	ldr	w0, [sp, #20]
   81b28:	7101181f 	cmp	w0, #0x46
   81b2c:	5400008c 	b.gt	81b3c <hexStr2int+0x9c>
   81b30:	b94017e0 	ldr	w0, [sp, #20]
   81b34:	5100dc00 	sub	w0, w0, #0x37
   81b38:	b90017e0 	str	w0, [sp, #20]
   81b3c:	f9400fe0 	ldr	x0, [sp, #24]
   81b40:	d37cec01 	lsl	x1, x0, #4
   81b44:	b94017e0 	ldr	w0, [sp, #20]
   81b48:	2a0003e0 	mov	w0, w0
   81b4c:	92400c00 	and	x0, x0, #0xf
   81b50:	aa000020 	orr	x0, x1, x0
   81b54:	f9000fe0 	str	x0, [sp, #24]
   81b58:	b94007e0 	ldr	w0, [sp, #4]
   81b5c:	51000400 	sub	w0, w0, #0x1
   81b60:	b90007e0 	str	w0, [sp, #4]
   81b64:	f94007e0 	ldr	x0, [sp, #8]
   81b68:	39400000 	ldrb	w0, [x0]
   81b6c:	7100001f 	cmp	w0, #0x0
   81b70:	54000080 	b.eq	81b80 <hexStr2int+0xe0>  // b.none
   81b74:	b94007e0 	ldr	w0, [sp, #4]
   81b78:	7100001f 	cmp	w0, #0x0
   81b7c:	54fff9cc 	b.gt	81ab4 <hexStr2int+0x14>
   81b80:	f9400fe0 	ldr	x0, [sp, #24]
   81b84:	910083ff 	add	sp, sp, #0x20
   81b88:	d65f03c0 	ret

0000000000081b8c <strlen>:
   81b8c:	d10083ff 	sub	sp, sp, #0x20
   81b90:	f90007e0 	str	x0, [sp, #8]
   81b94:	b9001fff 	str	wzr, [sp, #28]
   81b98:	14000004 	b	81ba8 <strlen+0x1c>
   81b9c:	b9401fe0 	ldr	w0, [sp, #28]
   81ba0:	11000400 	add	w0, w0, #0x1
   81ba4:	b9001fe0 	str	w0, [sp, #28]
   81ba8:	b9401fe0 	ldr	w0, [sp, #28]
   81bac:	f94007e1 	ldr	x1, [sp, #8]
   81bb0:	8b000020 	add	x0, x1, x0
   81bb4:	39400000 	ldrb	w0, [x0]
   81bb8:	7100001f 	cmp	w0, #0x0
   81bbc:	54ffff01 	b.ne	81b9c <strlen+0x10>  // b.any
   81bc0:	b9401fe0 	ldr	w0, [sp, #28]
   81bc4:	910083ff 	add	sp, sp, #0x20
   81bc8:	d65f03c0 	ret

0000000000081bcc <uart_init>:
   81bcc:	a9be7bfd 	stp	x29, x30, [sp, #-32]!
   81bd0:	910003fd 	mov	x29, sp
   81bd4:	f9000bf3 	str	x19, [sp, #16]
   81bd8:	d2800080 	mov	x0, #0x4                   	// #4
   81bdc:	f2a7e400 	movk	x0, #0x3f20, lsl #16
   81be0:	b9400013 	ldr	w19, [x0]
   81be4:	120e6673 	and	w19, w19, #0xfffc0fff
   81be8:	52840000 	mov	w0, #0x2000                	// #8192
   81bec:	72a00020 	movk	w0, #0x1, lsl #16
   81bf0:	2a000273 	orr	w19, w19, w0
   81bf4:	d2800080 	mov	x0, #0x4                   	// #4
   81bf8:	f2a7e400 	movk	x0, #0x3f20, lsl #16
   81bfc:	b9000013 	str	w19, [x0]
   81c00:	d2801280 	mov	x0, #0x94                  	// #148
   81c04:	f2a7e400 	movk	x0, #0x3f20, lsl #16
   81c08:	b900001f 	str	wzr, [x0]
   81c0c:	528012d3 	mov	w19, #0x96                  	// #150
   81c10:	14000002 	b	81c18 <uart_init+0x4c>
   81c14:	d503201f 	nop
   81c18:	2a1303e0 	mov	w0, w19
   81c1c:	51000413 	sub	w19, w0, #0x1
   81c20:	7100001f 	cmp	w0, #0x0
   81c24:	54ffff81 	b.ne	81c14 <uart_init+0x48>  // b.any
   81c28:	d2801300 	mov	x0, #0x98                  	// #152
   81c2c:	f2a7e400 	movk	x0, #0x3f20, lsl #16
   81c30:	52980001 	mov	w1, #0xc000                	// #49152
   81c34:	b9000001 	str	w1, [x0]
   81c38:	528012d3 	mov	w19, #0x96                  	// #150
   81c3c:	14000002 	b	81c44 <uart_init+0x78>
   81c40:	d503201f 	nop
   81c44:	2a1303e0 	mov	w0, w19
   81c48:	51000413 	sub	w19, w0, #0x1
   81c4c:	7100001f 	cmp	w0, #0x0
   81c50:	54ffff81 	b.ne	81c40 <uart_init+0x74>  // b.any
   81c54:	d2801300 	mov	x0, #0x98                  	// #152
   81c58:	f2a7e400 	movk	x0, #0x3f20, lsl #16
   81c5c:	b900001f 	str	wzr, [x0]
   81c60:	d28a0080 	mov	x0, #0x5004                	// #20484
   81c64:	f2a7e420 	movk	x0, #0x3f21, lsl #16
   81c68:	b9400001 	ldr	w1, [x0]
   81c6c:	d28a0080 	mov	x0, #0x5004                	// #20484
   81c70:	f2a7e420 	movk	x0, #0x3f21, lsl #16
   81c74:	32000021 	orr	w1, w1, #0x1
   81c78:	b9000001 	str	w1, [x0]
   81c7c:	d28a0c00 	mov	x0, #0x5060                	// #20576
   81c80:	f2a7e420 	movk	x0, #0x3f21, lsl #16
   81c84:	b900001f 	str	wzr, [x0]
   81c88:	d28a0980 	mov	x0, #0x504c                	// #20556
   81c8c:	f2a7e420 	movk	x0, #0x3f21, lsl #16
   81c90:	52800061 	mov	w1, #0x3                   	// #3
   81c94:	b9000001 	str	w1, [x0]
   81c98:	d28a0a00 	mov	x0, #0x5050                	// #20560
   81c9c:	f2a7e420 	movk	x0, #0x3f21, lsl #16
   81ca0:	b900001f 	str	wzr, [x0]
   81ca4:	d28a0880 	mov	x0, #0x5044                	// #20548
   81ca8:	f2a7e420 	movk	x0, #0x3f21, lsl #16
   81cac:	b900001f 	str	wzr, [x0]
   81cb0:	d28a0900 	mov	x0, #0x5048                	// #20552
   81cb4:	f2a7e420 	movk	x0, #0x3f21, lsl #16
   81cb8:	528018c1 	mov	w1, #0xc6                  	// #198
   81cbc:	b9000001 	str	w1, [x0]
   81cc0:	d28a0d00 	mov	x0, #0x5068                	// #20584
   81cc4:	f2a7e420 	movk	x0, #0x3f21, lsl #16
   81cc8:	528021c1 	mov	w1, #0x10e                 	// #270
   81ccc:	b9000001 	str	w1, [x0]
   81cd0:	d28a0c00 	mov	x0, #0x5060                	// #20576
   81cd4:	f2a7e420 	movk	x0, #0x3f21, lsl #16
   81cd8:	52800061 	mov	w1, #0x3                   	// #3
   81cdc:	b9000001 	str	w1, [x0]
   81ce0:	9400007c 	bl	81ed0 <init_uart_interrupt>
   81ce4:	d503201f 	nop
   81ce8:	f9400bf3 	ldr	x19, [sp, #16]
   81cec:	a8c27bfd 	ldp	x29, x30, [sp], #32
   81cf0:	d65f03c0 	ret

0000000000081cf4 <uart_send>:
   81cf4:	d10043ff 	sub	sp, sp, #0x10
   81cf8:	b9000fe0 	str	w0, [sp, #12]
   81cfc:	d503201f 	nop
   81d00:	d28a0a80 	mov	x0, #0x5054                	// #20564
   81d04:	f2a7e420 	movk	x0, #0x3f21, lsl #16
   81d08:	b9400000 	ldr	w0, [x0]
   81d0c:	121b0000 	and	w0, w0, #0x20
   81d10:	7100001f 	cmp	w0, #0x0
   81d14:	54ffff40 	b.eq	81cfc <uart_send+0x8>  // b.none
   81d18:	d28a0800 	mov	x0, #0x5040                	// #20544
   81d1c:	f2a7e420 	movk	x0, #0x3f21, lsl #16
   81d20:	b9400fe1 	ldr	w1, [sp, #12]
   81d24:	b9000001 	str	w1, [x0]
   81d28:	d503201f 	nop
   81d2c:	910043ff 	add	sp, sp, #0x10
   81d30:	d65f03c0 	ret

0000000000081d34 <uart_getc>:
   81d34:	d10043ff 	sub	sp, sp, #0x10
   81d38:	d503201f 	nop
   81d3c:	d28a0a80 	mov	x0, #0x5054                	// #20564
   81d40:	f2a7e420 	movk	x0, #0x3f21, lsl #16
   81d44:	b9400000 	ldr	w0, [x0]
   81d48:	12000000 	and	w0, w0, #0x1
   81d4c:	7100001f 	cmp	w0, #0x0
   81d50:	54ffff40 	b.eq	81d38 <uart_getc+0x4>  // b.none
   81d54:	d28a0800 	mov	x0, #0x5040                	// #20544
   81d58:	f2a7e420 	movk	x0, #0x3f21, lsl #16
   81d5c:	b9400000 	ldr	w0, [x0]
   81d60:	39003fe0 	strb	w0, [sp, #15]
   81d64:	39403fe0 	ldrb	w0, [sp, #15]
   81d68:	7100341f 	cmp	w0, #0xd
   81d6c:	54000060 	b.eq	81d78 <uart_getc+0x44>  // b.none
   81d70:	39403fe0 	ldrb	w0, [sp, #15]
   81d74:	14000002 	b	81d7c <uart_getc+0x48>
   81d78:	52800140 	mov	w0, #0xa                   	// #10
   81d7c:	910043ff 	add	sp, sp, #0x10
   81d80:	d65f03c0 	ret

0000000000081d84 <uart_puts>:
   81d84:	a9be7bfd 	stp	x29, x30, [sp, #-32]!
   81d88:	910003fd 	mov	x29, sp
   81d8c:	f9000fe0 	str	x0, [sp, #24]
   81d90:	1400000c 	b	81dc0 <uart_puts+0x3c>
   81d94:	f9400fe0 	ldr	x0, [sp, #24]
   81d98:	39400000 	ldrb	w0, [x0]
   81d9c:	7100281f 	cmp	w0, #0xa
   81da0:	54000061 	b.ne	81dac <uart_puts+0x28>  // b.any
   81da4:	528001a0 	mov	w0, #0xd                   	// #13
   81da8:	97ffffd3 	bl	81cf4 <uart_send>
   81dac:	f9400fe0 	ldr	x0, [sp, #24]
   81db0:	91000401 	add	x1, x0, #0x1
   81db4:	f9000fe1 	str	x1, [sp, #24]
   81db8:	39400000 	ldrb	w0, [x0]
   81dbc:	97ffffce 	bl	81cf4 <uart_send>
   81dc0:	f9400fe0 	ldr	x0, [sp, #24]
   81dc4:	39400000 	ldrb	w0, [x0]
   81dc8:	7100001f 	cmp	w0, #0x0
   81dcc:	54fffe41 	b.ne	81d94 <uart_puts+0x10>  // b.any
   81dd0:	d503201f 	nop
   81dd4:	d503201f 	nop
   81dd8:	a8c27bfd 	ldp	x29, x30, [sp], #32
   81ddc:	d65f03c0 	ret

0000000000081de0 <uart_hex>:
   81de0:	a9bd7bfd 	stp	x29, x30, [sp, #-48]!
   81de4:	910003fd 	mov	x29, sp
   81de8:	b9001fe0 	str	w0, [sp, #28]
   81dec:	52800380 	mov	w0, #0x1c                  	// #28
   81df0:	b9002fe0 	str	w0, [sp, #44]
   81df4:	14000014 	b	81e44 <uart_hex+0x64>
   81df8:	b9402fe0 	ldr	w0, [sp, #44]
   81dfc:	b9401fe1 	ldr	w1, [sp, #28]
   81e00:	1ac02420 	lsr	w0, w1, w0
   81e04:	12000c00 	and	w0, w0, #0xf
   81e08:	b9002be0 	str	w0, [sp, #40]
   81e0c:	b9402be0 	ldr	w0, [sp, #40]
   81e10:	7100241f 	cmp	w0, #0x9
   81e14:	54000069 	b.ls	81e20 <uart_hex+0x40>  // b.plast
   81e18:	528006e0 	mov	w0, #0x37                  	// #55
   81e1c:	14000002 	b	81e24 <uart_hex+0x44>
   81e20:	52800600 	mov	w0, #0x30                  	// #48
   81e24:	b9402be1 	ldr	w1, [sp, #40]
   81e28:	0b000020 	add	w0, w1, w0
   81e2c:	b9002be0 	str	w0, [sp, #40]
   81e30:	b9402be0 	ldr	w0, [sp, #40]
   81e34:	97ffffb0 	bl	81cf4 <uart_send>
   81e38:	b9402fe0 	ldr	w0, [sp, #44]
   81e3c:	51001000 	sub	w0, w0, #0x4
   81e40:	b9002fe0 	str	w0, [sp, #44]
   81e44:	b9402fe0 	ldr	w0, [sp, #44]
   81e48:	7100001f 	cmp	w0, #0x0
   81e4c:	54fffd6a 	b.ge	81df8 <uart_hex+0x18>  // b.tcont
   81e50:	d503201f 	nop
   81e54:	d503201f 	nop
   81e58:	a8c37bfd 	ldp	x29, x30, [sp], #48
   81e5c:	d65f03c0 	ret

0000000000081e60 <uart_getline>:
   81e60:	a9bd7bfd 	stp	x29, x30, [sp, #-48]!
   81e64:	910003fd 	mov	x29, sp
   81e68:	f9000fe0 	str	x0, [sp, #24]
   81e6c:	97ffffb2 	bl	81d34 <uart_getc>
   81e70:	3900afe0 	strb	w0, [sp, #43]
   81e74:	39c0afe0 	ldrsb	w0, [sp, #43]
   81e78:	7100001f 	cmp	w0, #0x0
   81e7c:	5400016b 	b.lt	81ea8 <uart_getline+0x48>  // b.tstop
   81e80:	3940afe0 	ldrb	w0, [sp, #43]
   81e84:	97ffff9c 	bl	81cf4 <uart_send>
   81e88:	b9402fe0 	ldr	w0, [sp, #44]
   81e8c:	11000401 	add	w1, w0, #0x1
   81e90:	b9002fe1 	str	w1, [sp, #44]
   81e94:	93407c00 	sxtw	x0, w0
   81e98:	f9400fe1 	ldr	x1, [sp, #24]
   81e9c:	8b000020 	add	x0, x1, x0
   81ea0:	3940afe1 	ldrb	w1, [sp, #43]
   81ea4:	39000001 	strb	w1, [x0]
   81ea8:	3940afe0 	ldrb	w0, [sp, #43]
   81eac:	7100281f 	cmp	w0, #0xa
   81eb0:	540000a0 	b.eq	81ec4 <uart_getline+0x64>  // b.none
   81eb4:	3940afe0 	ldrb	w0, [sp, #43]
   81eb8:	7100341f 	cmp	w0, #0xd
   81ebc:	54fffd81 	b.ne	81e6c <uart_getline+0xc>  // b.any
   81ec0:	d503201f 	nop
   81ec4:	d503201f 	nop
   81ec8:	a8c37bfd 	ldp	x29, x30, [sp], #48
   81ecc:	d65f03c0 	ret

0000000000081ed0 <init_uart_interrupt>:
   81ed0:	a9bf7bfd 	stp	x29, x30, [sp, #-16]!
   81ed4:	910003fd 	mov	x29, sp
   81ed8:	d28a0880 	mov	x0, #0x5044                	// #20548
   81edc:	f2a7e420 	movk	x0, #0x3f21, lsl #16
   81ee0:	b900001f 	str	wzr, [x0]
   81ee4:	90000020 	adrp	x0, 85000 <main+0x83c>
   81ee8:	f944ac00 	ldr	x0, [x0, #2392]
   81eec:	b900001f 	str	wzr, [x0]
   81ef0:	90000020 	adrp	x0, 85000 <main+0x83c>
   81ef4:	f944ac00 	ldr	x0, [x0, #2392]
   81ef8:	b9400001 	ldr	w1, [x0]
   81efc:	90000020 	adrp	x0, 85000 <main+0x83c>
   81f00:	f9449400 	ldr	x0, [x0, #2344]
   81f04:	b9000001 	str	w1, [x0]
   81f08:	90000020 	adrp	x0, 85000 <main+0x83c>
   81f0c:	f9449000 	ldr	x0, [x0, #2336]
   81f10:	b900001f 	str	wzr, [x0]
   81f14:	90000020 	adrp	x0, 85000 <main+0x83c>
   81f18:	f9449000 	ldr	x0, [x0, #2336]
   81f1c:	b9400001 	ldr	w1, [x0]
   81f20:	90000020 	adrp	x0, 85000 <main+0x83c>
   81f24:	f9447800 	ldr	x0, [x0, #2288]
   81f28:	b9000001 	str	w1, [x0]
   81f2c:	94000004 	bl	81f3c <enable_mini_uart_interrupt>
   81f30:	d503201f 	nop
   81f34:	a8c17bfd 	ldp	x29, x30, [sp], #16
   81f38:	d65f03c0 	ret

0000000000081f3c <enable_mini_uart_interrupt>:
   81f3c:	d2964200 	mov	x0, #0xb210                	// #45584
   81f40:	f2a7e000 	movk	x0, #0x3f00, lsl #16
   81f44:	52a40001 	mov	w1, #0x20000000            	// #536870912
   81f48:	b9000001 	str	w1, [x0]
   81f4c:	d503201f 	nop
   81f50:	d65f03c0 	ret

0000000000081f54 <disable_mini_uart_interrupt>:
   81f54:	d2964380 	mov	x0, #0xb21c                	// #45596
   81f58:	f2a7e000 	movk	x0, #0x3f00, lsl #16
   81f5c:	52a40001 	mov	w1, #0x20000000            	// #536870912
   81f60:	b9000001 	str	w1, [x0]
   81f64:	d503201f 	nop
   81f68:	d65f03c0 	ret

0000000000081f6c <enable_write_interrupt>:
   81f6c:	d28a0880 	mov	x0, #0x5044                	// #20548
   81f70:	f2a7e420 	movk	x0, #0x3f21, lsl #16
   81f74:	b9400001 	ldr	w1, [x0]
   81f78:	d28a0880 	mov	x0, #0x5044                	// #20548
   81f7c:	f2a7e420 	movk	x0, #0x3f21, lsl #16
   81f80:	321f0021 	orr	w1, w1, #0x2
   81f84:	b9000001 	str	w1, [x0]
   81f88:	d503201f 	nop
   81f8c:	d65f03c0 	ret

0000000000081f90 <disable_write_interrupt>:
   81f90:	d28a0880 	mov	x0, #0x5044                	// #20548
   81f94:	f2a7e420 	movk	x0, #0x3f21, lsl #16
   81f98:	b9400001 	ldr	w1, [x0]
   81f9c:	d28a0880 	mov	x0, #0x5044                	// #20548
   81fa0:	f2a7e420 	movk	x0, #0x3f21, lsl #16
   81fa4:	121e7821 	and	w1, w1, #0xfffffffd
   81fa8:	b9000001 	str	w1, [x0]
   81fac:	d503201f 	nop
   81fb0:	d65f03c0 	ret

0000000000081fb4 <enable_read_interrupt>:
   81fb4:	d28a0880 	mov	x0, #0x5044                	// #20548
   81fb8:	f2a7e420 	movk	x0, #0x3f21, lsl #16
   81fbc:	52800021 	mov	w1, #0x1                   	// #1
   81fc0:	b9000001 	str	w1, [x0]
   81fc4:	d503201f 	nop
   81fc8:	d65f03c0 	ret

0000000000081fcc <disable_read_interrupt>:
   81fcc:	d28a0880 	mov	x0, #0x5044                	// #20548
   81fd0:	f2a7e420 	movk	x0, #0x3f21, lsl #16
   81fd4:	b900001f 	str	wzr, [x0]
   81fd8:	d503201f 	nop
   81fdc:	d65f03c0 	ret

0000000000081fe0 <mini_uart_interrupt_handler>:
   81fe0:	a9be7bfd 	stp	x29, x30, [sp, #-32]!
   81fe4:	910003fd 	mov	x29, sp
   81fe8:	97ffffdb 	bl	81f54 <disable_mini_uart_interrupt>
   81fec:	d28a0900 	mov	x0, #0x5048                	// #20552
   81ff0:	f2a7e420 	movk	x0, #0x3f21, lsl #16
   81ff4:	b9400000 	ldr	w0, [x0]
   81ff8:	121e0000 	and	w0, w0, #0x4
   81ffc:	7100001f 	cmp	w0, #0x0
   82000:	54000420 	b.eq	82084 <mini_uart_interrupt_handler+0xa4>  // b.none
   82004:	14000019 	b	82068 <mini_uart_interrupt_handler+0x88>
   82008:	d28a0800 	mov	x0, #0x5040                	// #20544
   8200c:	f2a7e420 	movk	x0, #0x3f21, lsl #16
   82010:	b9400000 	ldr	w0, [x0]
   82014:	39007fe0 	strb	w0, [sp, #31]
   82018:	f0000000 	adrp	x0, 85000 <main+0x83c>
   8201c:	f944ac00 	ldr	x0, [x0, #2392]
   82020:	b9400000 	ldr	w0, [x0]
   82024:	11000402 	add	w2, w0, #0x1
   82028:	f0000001 	adrp	x1, 85000 <main+0x83c>
   8202c:	f944ac21 	ldr	x1, [x1, #2392]
   82030:	b9000022 	str	w2, [x1]
   82034:	f0000001 	adrp	x1, 85000 <main+0x83c>
   82038:	f944b421 	ldr	x1, [x1, #2408]
   8203c:	93407c00 	sxtw	x0, w0
   82040:	39407fe2 	ldrb	w2, [sp, #31]
   82044:	38206822 	strb	w2, [x1, x0]
   82048:	f0000000 	adrp	x0, 85000 <main+0x83c>
   8204c:	f944ac00 	ldr	x0, [x0, #2392]
   82050:	b9400000 	ldr	w0, [x0]
   82054:	7110001f 	cmp	w0, #0x400
   82058:	54000081 	b.ne	82068 <mini_uart_interrupt_handler+0x88>  // b.any
   8205c:	f0000000 	adrp	x0, 85000 <main+0x83c>
   82060:	f944ac00 	ldr	x0, [x0, #2392]
   82064:	b900001f 	str	wzr, [x0]
   82068:	d28a0a80 	mov	x0, #0x5054                	// #20564
   8206c:	f2a7e420 	movk	x0, #0x3f21, lsl #16
   82070:	b9400000 	ldr	w0, [x0]
   82074:	12000000 	and	w0, w0, #0x1
   82078:	7100001f 	cmp	w0, #0x0
   8207c:	54fffc61 	b.ne	82008 <mini_uart_interrupt_handler+0x28>  // b.any
   82080:	1400001e 	b	820f8 <mini_uart_interrupt_handler+0x118>
   82084:	d28a0900 	mov	x0, #0x5048                	// #20552
   82088:	f2a7e420 	movk	x0, #0x3f21, lsl #16
   8208c:	b9400000 	ldr	w0, [x0]
   82090:	121f0000 	and	w0, w0, #0x2
   82094:	7100001f 	cmp	w0, #0x0
   82098:	54000300 	b.eq	820f8 <mini_uart_interrupt_handler+0x118>  // b.none
   8209c:	f0000000 	adrp	x0, 85000 <main+0x83c>
   820a0:	f9447800 	ldr	x0, [x0, #2288]
   820a4:	b9400001 	ldr	w1, [x0]
   820a8:	f0000000 	adrp	x0, 85000 <main+0x83c>
   820ac:	f9449000 	ldr	x0, [x0, #2336]
   820b0:	b9400000 	ldr	w0, [x0]
   820b4:	6b00003f 	cmp	w1, w0
   820b8:	54000061 	b.ne	820c4 <mini_uart_interrupt_handler+0xe4>  // b.any
   820bc:	97ffffb5 	bl	81f90 <disable_write_interrupt>
   820c0:	1400000e 	b	820f8 <mini_uart_interrupt_handler+0x118>
   820c4:	f0000000 	adrp	x0, 85000 <main+0x83c>
   820c8:	f9447800 	ldr	x0, [x0, #2288]
   820cc:	b9400000 	ldr	w0, [x0]
   820d0:	11000402 	add	w2, w0, #0x1
   820d4:	f0000001 	adrp	x1, 85000 <main+0x83c>
   820d8:	f9447821 	ldr	x1, [x1, #2288]
   820dc:	b9000022 	str	w2, [x1]
   820e0:	f0000001 	adrp	x1, 85000 <main+0x83c>
   820e4:	f9449c21 	ldr	x1, [x1, #2360]
   820e8:	93407c00 	sxtw	x0, w0
   820ec:	38606820 	ldrb	w0, [x1, x0]
   820f0:	97ffff01 	bl	81cf4 <uart_send>
   820f4:	17ffffea 	b	8209c <mini_uart_interrupt_handler+0xbc>
   820f8:	97ffff91 	bl	81f3c <enable_mini_uart_interrupt>
   820fc:	d503201f 	nop
   82100:	a8c27bfd 	ldp	x29, x30, [sp], #32
   82104:	d65f03c0 	ret

0000000000082108 <uart_async_getc>:
   82108:	a9be7bfd 	stp	x29, x30, [sp, #-32]!
   8210c:	910003fd 	mov	x29, sp
   82110:	97ffffa9 	bl	81fb4 <enable_read_interrupt>
   82114:	14000002 	b	8211c <uart_async_getc+0x14>
   82118:	d503201f 	nop
   8211c:	f0000000 	adrp	x0, 85000 <main+0x83c>
   82120:	f9449400 	ldr	x0, [x0, #2344]
   82124:	b9400001 	ldr	w1, [x0]
   82128:	f0000000 	adrp	x0, 85000 <main+0x83c>
   8212c:	f944ac00 	ldr	x0, [x0, #2392]
   82130:	b9400000 	ldr	w0, [x0]
   82134:	6b00003f 	cmp	w1, w0
   82138:	54ffff00 	b.eq	82118 <uart_async_getc+0x10>  // b.none
   8213c:	f0000000 	adrp	x0, 85000 <main+0x83c>
   82140:	f9449400 	ldr	x0, [x0, #2344]
   82144:	b9400000 	ldr	w0, [x0]
   82148:	11000402 	add	w2, w0, #0x1
   8214c:	f0000001 	adrp	x1, 85000 <main+0x83c>
   82150:	f9449421 	ldr	x1, [x1, #2344]
   82154:	b9000022 	str	w2, [x1]
   82158:	f0000001 	adrp	x1, 85000 <main+0x83c>
   8215c:	f944b421 	ldr	x1, [x1, #2408]
   82160:	93407c00 	sxtw	x0, w0
   82164:	38606820 	ldrb	w0, [x1, x0]
   82168:	39007fe0 	strb	w0, [sp, #31]
   8216c:	f0000000 	adrp	x0, 85000 <main+0x83c>
   82170:	f9449400 	ldr	x0, [x0, #2344]
   82174:	b9400000 	ldr	w0, [x0]
   82178:	7110001f 	cmp	w0, #0x400
   8217c:	54000081 	b.ne	8218c <uart_async_getc+0x84>  // b.any
   82180:	f0000000 	adrp	x0, 85000 <main+0x83c>
   82184:	f9449400 	ldr	x0, [x0, #2344]
   82188:	b900001f 	str	wzr, [x0]
   8218c:	97ffff90 	bl	81fcc <disable_read_interrupt>
   82190:	39407fe0 	ldrb	w0, [sp, #31]
   82194:	a8c27bfd 	ldp	x29, x30, [sp], #32
   82198:	d65f03c0 	ret

000000000008219c <uart_async_puts>:
   8219c:	a9bd7bfd 	stp	x29, x30, [sp, #-48]!
   821a0:	910003fd 	mov	x29, sp
   821a4:	f9000fe0 	str	x0, [sp, #24]
   821a8:	b9002fff 	str	wzr, [sp, #44]
   821ac:	1400002e 	b	82264 <uart_async_puts+0xc8>
   821b0:	b9802fe0 	ldrsw	x0, [sp, #44]
   821b4:	f9400fe1 	ldr	x1, [sp, #24]
   821b8:	8b000020 	add	x0, x1, x0
   821bc:	39400000 	ldrb	w0, [x0]
   821c0:	7100281f 	cmp	w0, #0xa
   821c4:	540001c1 	b.ne	821fc <uart_async_puts+0x60>  // b.any
   821c8:	f0000000 	adrp	x0, 85000 <main+0x83c>
   821cc:	f9449000 	ldr	x0, [x0, #2336]
   821d0:	b9400000 	ldr	w0, [x0]
   821d4:	11000402 	add	w2, w0, #0x1
   821d8:	f0000001 	adrp	x1, 85000 <main+0x83c>
   821dc:	f9449021 	ldr	x1, [x1, #2336]
   821e0:	b9000022 	str	w2, [x1]
   821e4:	f0000001 	adrp	x1, 85000 <main+0x83c>
   821e8:	f9449c21 	ldr	x1, [x1, #2360]
   821ec:	93407c00 	sxtw	x0, w0
   821f0:	528001a2 	mov	w2, #0xd                   	// #13
   821f4:	38206822 	strb	w2, [x1, x0]
   821f8:	14000021 	b	8227c <uart_async_puts+0xe0>
   821fc:	b9802fe0 	ldrsw	x0, [sp, #44]
   82200:	f9400fe1 	ldr	x1, [sp, #24]
   82204:	8b000021 	add	x1, x1, x0
   82208:	f0000000 	adrp	x0, 85000 <main+0x83c>
   8220c:	f9449000 	ldr	x0, [x0, #2336]
   82210:	b9400000 	ldr	w0, [x0]
   82214:	11000403 	add	w3, w0, #0x1
   82218:	f0000002 	adrp	x2, 85000 <main+0x83c>
   8221c:	f9449042 	ldr	x2, [x2, #2336]
   82220:	b9000043 	str	w3, [x2]
   82224:	39400022 	ldrb	w2, [x1]
   82228:	f0000001 	adrp	x1, 85000 <main+0x83c>
   8222c:	f9449c21 	ldr	x1, [x1, #2360]
   82230:	93407c00 	sxtw	x0, w0
   82234:	38206822 	strb	w2, [x1, x0]
   82238:	f0000000 	adrp	x0, 85000 <main+0x83c>
   8223c:	f9449000 	ldr	x0, [x0, #2336]
   82240:	b9400000 	ldr	w0, [x0]
   82244:	7110001f 	cmp	w0, #0x400
   82248:	54000081 	b.ne	82258 <uart_async_puts+0xbc>  // b.any
   8224c:	f0000000 	adrp	x0, 85000 <main+0x83c>
   82250:	f9449000 	ldr	x0, [x0, #2336]
   82254:	b900001f 	str	wzr, [x0]
   82258:	b9402fe0 	ldr	w0, [sp, #44]
   8225c:	11000400 	add	w0, w0, #0x1
   82260:	b9002fe0 	str	w0, [sp, #44]
   82264:	b9802fe0 	ldrsw	x0, [sp, #44]
   82268:	f9400fe1 	ldr	x1, [sp, #24]
   8226c:	8b000020 	add	x0, x1, x0
   82270:	39400000 	ldrb	w0, [x0]
   82274:	7100001f 	cmp	w0, #0x0
   82278:	54fff9c1 	b.ne	821b0 <uart_async_puts+0x14>  // b.any
   8227c:	97ffff3c 	bl	81f6c <enable_write_interrupt>
   82280:	d503201f 	nop
   82284:	a8c37bfd 	ldp	x29, x30, [sp], #48
   82288:	d65f03c0 	ret

000000000008228c <set>:
   8228c:	d10083ff 	sub	sp, sp, #0x20
   82290:	f90007e0 	str	x0, [sp, #8]
   82294:	b90007e1 	str	w1, [sp, #4]
   82298:	f94007e0 	ldr	x0, [sp, #8]
   8229c:	f9000fe0 	str	x0, [sp, #24]
   822a0:	f9400fe0 	ldr	x0, [sp, #24]
   822a4:	b94007e1 	ldr	w1, [sp, #4]
   822a8:	b9000001 	str	w1, [x0]
   822ac:	d503201f 	nop
   822b0:	910083ff 	add	sp, sp, #0x20
   822b4:	d65f03c0 	ret

00000000000822b8 <reset>:
   822b8:	a9be7bfd 	stp	x29, x30, [sp, #-32]!
   822bc:	910003fd 	mov	x29, sp
   822c0:	b9001fe0 	str	w0, [sp, #28]
   822c4:	52800401 	mov	w1, #0x20                  	// #32
   822c8:	72ab4001 	movk	w1, #0x5a00, lsl #16
   822cc:	d2800380 	mov	x0, #0x1c                  	// #28
   822d0:	f2a7e200 	movk	x0, #0x3f10, lsl #16
   822d4:	97ffffee 	bl	8228c <set>
   822d8:	b9401fe1 	ldr	w1, [sp, #28]
   822dc:	52ab4000 	mov	w0, #0x5a000000            	// #1509949440
   822e0:	2a000020 	orr	w0, w1, w0
   822e4:	2a0003e1 	mov	w1, w0
   822e8:	d2800480 	mov	x0, #0x24                  	// #36
   822ec:	f2a7e200 	movk	x0, #0x3f10, lsl #16
   822f0:	97ffffe7 	bl	8228c <set>
   822f4:	d503201f 	nop
   822f8:	a8c27bfd 	ldp	x29, x30, [sp], #32
   822fc:	d65f03c0 	ret

0000000000082300 <cancel_reboot>:
   82300:	a9bf7bfd 	stp	x29, x30, [sp, #-16]!
   82304:	910003fd 	mov	x29, sp
   82308:	52ab4001 	mov	w1, #0x5a000000            	// #1509949440
   8230c:	d2800380 	mov	x0, #0x1c                  	// #28
   82310:	f2a7e200 	movk	x0, #0x3f10, lsl #16
   82314:	97ffffde 	bl	8228c <set>
   82318:	52ab4001 	mov	w1, #0x5a000000            	// #1509949440
   8231c:	d2800480 	mov	x0, #0x24                  	// #36
   82320:	f2a7e200 	movk	x0, #0x3f10, lsl #16
   82324:	97ffffda 	bl	8228c <set>
   82328:	d503201f 	nop
   8232c:	a8c17bfd 	ldp	x29, x30, [sp], #16
   82330:	d65f03c0 	ret

0000000000082334 <mbox_call>:
   82334:	d10083ff 	sub	sp, sp, #0x20
   82338:	39003fe0 	strb	w0, [sp, #15]
   8233c:	39403fe0 	ldrb	w0, [sp, #15]
   82340:	12000c01 	and	w1, w0, #0xf
   82344:	f0000000 	adrp	x0, 85000 <main+0x83c>
   82348:	f9447c00 	ldr	x0, [x0, #2296]
   8234c:	121c6c00 	and	w0, w0, #0xfffffff0
   82350:	2a000020 	orr	w0, w1, w0
   82354:	b9001fe0 	str	w0, [sp, #28]
   82358:	d503201f 	nop
   8235c:	d2971300 	mov	x0, #0xb898                	// #47256
   82360:	f2a7e000 	movk	x0, #0x3f00, lsl #16
   82364:	b9400000 	ldr	w0, [x0]
   82368:	7100001f 	cmp	w0, #0x0
   8236c:	54ffff6b 	b.lt	82358 <mbox_call+0x24>  // b.tstop
   82370:	d2971400 	mov	x0, #0xb8a0                	// #47264
   82374:	f2a7e000 	movk	x0, #0x3f00, lsl #16
   82378:	b9401fe1 	ldr	w1, [sp, #28]
   8237c:	b9000001 	str	w1, [x0]
   82380:	d503201f 	nop
   82384:	d2971300 	mov	x0, #0xb898                	// #47256
   82388:	f2a7e000 	movk	x0, #0x3f00, lsl #16
   8238c:	b9400000 	ldr	w0, [x0]
   82390:	12020000 	and	w0, w0, #0x40000000
   82394:	7100001f 	cmp	w0, #0x0
   82398:	54ffff41 	b.ne	82380 <mbox_call+0x4c>  // b.any
   8239c:	d2971000 	mov	x0, #0xb880                	// #47232
   823a0:	f2a7e000 	movk	x0, #0x3f00, lsl #16
   823a4:	b9400000 	ldr	w0, [x0]
   823a8:	b9401fe1 	ldr	w1, [sp, #28]
   823ac:	6b00003f 	cmp	w1, w0
   823b0:	54fffe81 	b.ne	82380 <mbox_call+0x4c>  // b.any
   823b4:	f0000000 	adrp	x0, 85000 <main+0x83c>
   823b8:	f9447c00 	ldr	x0, [x0, #2296]
   823bc:	b9400401 	ldr	w1, [x0, #4]
   823c0:	52b00000 	mov	w0, #0x80000000            	// #-2147483648
   823c4:	6b00003f 	cmp	w1, w0
   823c8:	1a9f17e0 	cset	w0, eq  // eq = none
   823cc:	12001c00 	and	w0, w0, #0xff
   823d0:	910083ff 	add	sp, sp, #0x20
   823d4:	d65f03c0 	ret

00000000000823d8 <get_board_revision>:
   823d8:	a9be7bfd 	stp	x29, x30, [sp, #-32]!
   823dc:	910003fd 	mov	x29, sp
   823e0:	f9000fe0 	str	x0, [sp, #24]
   823e4:	f0000000 	adrp	x0, 85000 <main+0x83c>
   823e8:	f9447c00 	ldr	x0, [x0, #2296]
   823ec:	52800381 	mov	w1, #0x1c                  	// #28
   823f0:	b9000001 	str	w1, [x0]
   823f4:	f0000000 	adrp	x0, 85000 <main+0x83c>
   823f8:	f9447c00 	ldr	x0, [x0, #2296]
   823fc:	b900041f 	str	wzr, [x0, #4]
   82400:	f0000000 	adrp	x0, 85000 <main+0x83c>
   82404:	f9447c00 	ldr	x0, [x0, #2296]
   82408:	52800041 	mov	w1, #0x2                   	// #2
   8240c:	72a00021 	movk	w1, #0x1, lsl #16
   82410:	b9000801 	str	w1, [x0, #8]
   82414:	f0000000 	adrp	x0, 85000 <main+0x83c>
   82418:	f9447c00 	ldr	x0, [x0, #2296]
   8241c:	52800081 	mov	w1, #0x4                   	// #4
   82420:	b9000c01 	str	w1, [x0, #12]
   82424:	f0000000 	adrp	x0, 85000 <main+0x83c>
   82428:	f9447c00 	ldr	x0, [x0, #2296]
   8242c:	b900101f 	str	wzr, [x0, #16]
   82430:	f0000000 	adrp	x0, 85000 <main+0x83c>
   82434:	f9447c00 	ldr	x0, [x0, #2296]
   82438:	b900141f 	str	wzr, [x0, #20]
   8243c:	f0000000 	adrp	x0, 85000 <main+0x83c>
   82440:	f9447c00 	ldr	x0, [x0, #2296]
   82444:	b900181f 	str	wzr, [x0, #24]
   82448:	52800100 	mov	w0, #0x8                   	// #8
   8244c:	97ffffba 	bl	82334 <mbox_call>
   82450:	f0000000 	adrp	x0, 85000 <main+0x83c>
   82454:	f9447c00 	ldr	x0, [x0, #2296]
   82458:	b9401401 	ldr	w1, [x0, #20]
   8245c:	f9400fe0 	ldr	x0, [sp, #24]
   82460:	b9000001 	str	w1, [x0]
   82464:	d503201f 	nop
   82468:	a8c27bfd 	ldp	x29, x30, [sp], #32
   8246c:	d65f03c0 	ret

0000000000082470 <get_arm_memory>:
   82470:	a9be7bfd 	stp	x29, x30, [sp, #-32]!
   82474:	910003fd 	mov	x29, sp
   82478:	f9000fe0 	str	x0, [sp, #24]
   8247c:	f9000be1 	str	x1, [sp, #16]
   82480:	f0000000 	adrp	x0, 85000 <main+0x83c>
   82484:	f9447c00 	ldr	x0, [x0, #2296]
   82488:	52800401 	mov	w1, #0x20                  	// #32
   8248c:	b9000001 	str	w1, [x0]
   82490:	f0000000 	adrp	x0, 85000 <main+0x83c>
   82494:	f9447c00 	ldr	x0, [x0, #2296]
   82498:	b900041f 	str	wzr, [x0, #4]
   8249c:	f0000000 	adrp	x0, 85000 <main+0x83c>
   824a0:	f9447c00 	ldr	x0, [x0, #2296]
   824a4:	528000a1 	mov	w1, #0x5                   	// #5
   824a8:	72a00021 	movk	w1, #0x1, lsl #16
   824ac:	b9000801 	str	w1, [x0, #8]
   824b0:	f0000000 	adrp	x0, 85000 <main+0x83c>
   824b4:	f9447c00 	ldr	x0, [x0, #2296]
   824b8:	52800101 	mov	w1, #0x8                   	// #8
   824bc:	b9000c01 	str	w1, [x0, #12]
   824c0:	f0000000 	adrp	x0, 85000 <main+0x83c>
   824c4:	f9447c00 	ldr	x0, [x0, #2296]
   824c8:	b900101f 	str	wzr, [x0, #16]
   824cc:	f0000000 	adrp	x0, 85000 <main+0x83c>
   824d0:	f9447c00 	ldr	x0, [x0, #2296]
   824d4:	b900141f 	str	wzr, [x0, #20]
   824d8:	f0000000 	adrp	x0, 85000 <main+0x83c>
   824dc:	f9447c00 	ldr	x0, [x0, #2296]
   824e0:	b900181f 	str	wzr, [x0, #24]
   824e4:	f0000000 	adrp	x0, 85000 <main+0x83c>
   824e8:	f9447c00 	ldr	x0, [x0, #2296]
   824ec:	b9001c1f 	str	wzr, [x0, #28]
   824f0:	52800100 	mov	w0, #0x8                   	// #8
   824f4:	97ffff90 	bl	82334 <mbox_call>
   824f8:	f0000000 	adrp	x0, 85000 <main+0x83c>
   824fc:	f9447c00 	ldr	x0, [x0, #2296]
   82500:	b9401401 	ldr	w1, [x0, #20]
   82504:	f9400fe0 	ldr	x0, [sp, #24]
   82508:	b9000001 	str	w1, [x0]
   8250c:	f0000000 	adrp	x0, 85000 <main+0x83c>
   82510:	f9447c00 	ldr	x0, [x0, #2296]
   82514:	b9401801 	ldr	w1, [x0, #24]
   82518:	f9400be0 	ldr	x0, [sp, #16]
   8251c:	b9000001 	str	w1, [x0]
   82520:	d503201f 	nop
   82524:	a8c27bfd 	ldp	x29, x30, [sp], #32
   82528:	d65f03c0 	ret

000000000008252c <cpio_header_parser>:
   8252c:	a9ba7bfd 	stp	x29, x30, [sp, #-96]!
   82530:	910003fd 	mov	x29, sp
   82534:	f9001fe0 	str	x0, [sp, #56]
   82538:	f9001be1 	str	x1, [sp, #48]
   8253c:	f90017e2 	str	x2, [sp, #40]
   82540:	f90013e3 	str	x3, [sp, #32]
   82544:	f9000fe4 	str	x4, [sp, #24]
   82548:	f9401fe3 	ldr	x3, [sp, #56]
   8254c:	528000c2 	mov	w2, #0x6                   	// #6
   82550:	d0000000 	adrp	x0, 84000 <buddy_merge+0xb0>
   82554:	91340001 	add	x1, x0, #0xd00
   82558:	aa0303e0 	mov	x0, x3
   8255c:	97fffd28 	bl	819fc <strncmp>
   82560:	7100001f 	cmp	w0, #0x0
   82564:	54000060 	b.eq	82570 <cpio_header_parser+0x44>  // b.none
   82568:	12800000 	mov	w0, #0xffffffff            	// #-1
   8256c:	14000037 	b	82648 <cpio_header_parser+0x11c>
   82570:	f9401fe0 	ldr	x0, [sp, #56]
   82574:	9100d800 	add	x0, x0, #0x36
   82578:	52800101 	mov	w1, #0x8                   	// #8
   8257c:	97fffd49 	bl	81aa0 <hexStr2int>
   82580:	aa0003e1 	mov	x1, x0
   82584:	f94017e0 	ldr	x0, [sp, #40]
   82588:	f9000001 	str	x1, [x0]
   8258c:	f9401fe0 	ldr	x0, [sp, #56]
   82590:	9101b801 	add	x1, x0, #0x6e
   82594:	f9401be0 	ldr	x0, [sp, #48]
   82598:	f9000001 	str	x1, [x0]
   8259c:	f9401be0 	ldr	x0, [sp, #48]
   825a0:	f9400003 	ldr	x3, [x0]
   825a4:	52800162 	mov	w2, #0xb                   	// #11
   825a8:	d0000000 	adrp	x0, 84000 <buddy_merge+0xb0>
   825ac:	91342001 	add	x1, x0, #0xd08
   825b0:	aa0303e0 	mov	x0, x3
   825b4:	97fffd12 	bl	819fc <strncmp>
   825b8:	7100001f 	cmp	w0, #0x0
   825bc:	54000061 	b.ne	825c8 <cpio_header_parser+0x9c>  // b.any
   825c0:	52800020 	mov	w0, #0x1                   	// #1
   825c4:	14000021 	b	82648 <cpio_header_parser+0x11c>
   825c8:	f9401fe0 	ldr	x0, [sp, #56]
   825cc:	91017800 	add	x0, x0, #0x5e
   825d0:	52800101 	mov	w1, #0x8                   	// #8
   825d4:	97fffd33 	bl	81aa0 <hexStr2int>
   825d8:	f9002fe0 	str	x0, [sp, #88]
   825dc:	f9402fe0 	ldr	x0, [sp, #88]
   825e0:	9101b800 	add	x0, x0, #0x6e
   825e4:	f9002be0 	str	x0, [sp, #80]
   825e8:	f9401fe0 	ldr	x0, [sp, #56]
   825ec:	f9402be1 	ldr	x1, [sp, #80]
   825f0:	8b000020 	add	x0, x1, x0
   825f4:	f90027e0 	str	x0, [sp, #72]
   825f8:	f94027e0 	ldr	x0, [sp, #72]
   825fc:	9400006f 	bl	827b8 <align_by_4>
   82600:	f90027e0 	str	x0, [sp, #72]
   82604:	f94027e1 	ldr	x1, [sp, #72]
   82608:	f94013e0 	ldr	x0, [sp, #32]
   8260c:	f9000001 	str	x1, [x0]
   82610:	f94013e0 	ldr	x0, [sp, #32]
   82614:	f9400000 	ldr	x0, [x0]
   82618:	aa0003e1 	mov	x1, x0
   8261c:	f94017e0 	ldr	x0, [sp, #40]
   82620:	f9400000 	ldr	x0, [x0]
   82624:	8b000020 	add	x0, x1, x0
   82628:	f90027e0 	str	x0, [sp, #72]
   8262c:	f94027e0 	ldr	x0, [sp, #72]
   82630:	94000062 	bl	827b8 <align_by_4>
   82634:	f90027e0 	str	x0, [sp, #72]
   82638:	f94027e1 	ldr	x1, [sp, #72]
   8263c:	f9400fe0 	ldr	x0, [sp, #24]
   82640:	f9000001 	str	x1, [x0]
   82644:	52800000 	mov	w0, #0x0                   	// #0
   82648:	a8c67bfd 	ldp	x29, x30, [sp], #96
   8264c:	d65f03c0 	ret

0000000000082650 <cpio_ls>:
   82650:	a9bb7bfd 	stp	x29, x30, [sp, #-80]!
   82654:	910003fd 	mov	x29, sp
   82658:	f9000fe0 	str	x0, [sp, #24]
   8265c:	f9400fe0 	ldr	x0, [sp, #24]
   82660:	f90027e0 	str	x0, [sp, #72]
   82664:	910083e3 	add	x3, sp, #0x20
   82668:	9100a3e2 	add	x2, sp, #0x28
   8266c:	9100c3e1 	add	x1, sp, #0x30
   82670:	9100e3e0 	add	x0, sp, #0x38
   82674:	aa0303e4 	mov	x4, x3
   82678:	aa0203e3 	mov	x3, x2
   8267c:	aa0103e2 	mov	x2, x1
   82680:	aa0003e1 	mov	x1, x0
   82684:	f94027e0 	ldr	x0, [sp, #72]
   82688:	97ffffa9 	bl	8252c <cpio_header_parser>
   8268c:	b90047e0 	str	w0, [sp, #68]
   82690:	b94047e0 	ldr	w0, [sp, #68]
   82694:	7100001f 	cmp	w0, #0x0
   82698:	54000121 	b.ne	826bc <cpio_ls+0x6c>  // b.any
   8269c:	f9401fe0 	ldr	x0, [sp, #56]
   826a0:	97fffdb9 	bl	81d84 <uart_puts>
   826a4:	d0000000 	adrp	x0, 84000 <buddy_merge+0xb0>
   826a8:	91346000 	add	x0, x0, #0xd18
   826ac:	97fffdb6 	bl	81d84 <uart_puts>
   826b0:	f94013e0 	ldr	x0, [sp, #32]
   826b4:	f90027e0 	str	x0, [sp, #72]
   826b8:	17ffffeb 	b	82664 <cpio_ls+0x14>
   826bc:	d503201f 	nop
   826c0:	d503201f 	nop
   826c4:	a8c57bfd 	ldp	x29, x30, [sp], #80
   826c8:	d65f03c0 	ret

00000000000826cc <cpio_cat>:
   826cc:	a9bb7bfd 	stp	x29, x30, [sp, #-80]!
   826d0:	910003fd 	mov	x29, sp
   826d4:	f9000fe0 	str	x0, [sp, #24]
   826d8:	f9000be1 	str	x1, [sp, #16]
   826dc:	b90043ff 	str	wzr, [sp, #64]
   826e0:	f9400fe0 	ldr	x0, [sp, #24]
   826e4:	f90027e0 	str	x0, [sp, #72]
   826e8:	910083e3 	add	x3, sp, #0x20
   826ec:	9100a3e2 	add	x2, sp, #0x28
   826f0:	9100c3e1 	add	x1, sp, #0x30
   826f4:	9100e3e0 	add	x0, sp, #0x38
   826f8:	aa0303e4 	mov	x4, x3
   826fc:	aa0203e3 	mov	x3, x2
   82700:	aa0103e2 	mov	x2, x1
   82704:	aa0003e1 	mov	x1, x0
   82708:	f94027e0 	ldr	x0, [sp, #72]
   8270c:	97ffff88 	bl	8252c <cpio_header_parser>
   82710:	b90043e0 	str	w0, [sp, #64]
   82714:	b94043e0 	ldr	w0, [sp, #64]
   82718:	7100001f 	cmp	w0, #0x0
   8271c:	54000401 	b.ne	8279c <cpio_cat+0xd0>  // b.any
   82720:	f9401fe0 	ldr	x0, [sp, #56]
   82724:	f9400be1 	ldr	x1, [sp, #16]
   82728:	97fffc99 	bl	8198c <strcmp>
   8272c:	7100001f 	cmp	w0, #0x0
   82730:	54000301 	b.ne	82790 <cpio_cat+0xc4>  // b.any
   82734:	b90047ff 	str	wzr, [sp, #68]
   82738:	14000011 	b	8277c <cpio_cat+0xb0>
   8273c:	f94017e1 	ldr	x1, [sp, #40]
   82740:	b98047e0 	ldrsw	x0, [sp, #68]
   82744:	8b000020 	add	x0, x1, x0
   82748:	39400000 	ldrb	w0, [x0]
   8274c:	97fffd6a 	bl	81cf4 <uart_send>
   82750:	f94017e1 	ldr	x1, [sp, #40]
   82754:	b98047e0 	ldrsw	x0, [sp, #68]
   82758:	8b000020 	add	x0, x1, x0
   8275c:	39400000 	ldrb	w0, [x0]
   82760:	7100281f 	cmp	w0, #0xa
   82764:	54000061 	b.ne	82770 <cpio_cat+0xa4>  // b.any
   82768:	528001a0 	mov	w0, #0xd                   	// #13
   8276c:	97fffd62 	bl	81cf4 <uart_send>
   82770:	b94047e0 	ldr	w0, [sp, #68]
   82774:	11000400 	add	w0, w0, #0x1
   82778:	b90047e0 	str	w0, [sp, #68]
   8277c:	b98047e1 	ldrsw	x1, [sp, #68]
   82780:	f9401be0 	ldr	x0, [sp, #48]
   82784:	eb00003f 	cmp	x1, x0
   82788:	54fffda3 	b.cc	8273c <cpio_cat+0x70>  // b.lo, b.ul, b.last
   8278c:	14000009 	b	827b0 <cpio_cat+0xe4>
   82790:	f94013e0 	ldr	x0, [sp, #32]
   82794:	f90027e0 	str	x0, [sp, #72]
   82798:	17ffffd4 	b	826e8 <cpio_cat+0x1c>
   8279c:	d503201f 	nop
   827a0:	d0000000 	adrp	x0, 84000 <buddy_merge+0xb0>
   827a4:	91348000 	add	x0, x0, #0xd20
   827a8:	97fffd77 	bl	81d84 <uart_puts>
   827ac:	d503201f 	nop
   827b0:	a8c57bfd 	ldp	x29, x30, [sp], #80
   827b4:	d65f03c0 	ret

00000000000827b8 <align_by_4>:
   827b8:	d10083ff 	sub	sp, sp, #0x20
   827bc:	f90007e0 	str	x0, [sp, #8]
   827c0:	f94007e0 	ldr	x0, [sp, #8]
   827c4:	92400400 	and	x0, x0, #0x3
   827c8:	f9000fe0 	str	x0, [sp, #24]
   827cc:	f94007e1 	ldr	x1, [sp, #8]
   827d0:	f9400fe0 	ldr	x0, [sp, #24]
   827d4:	cb000020 	sub	x0, x1, x0
   827d8:	f90007e0 	str	x0, [sp, #8]
   827dc:	f9400fe0 	ldr	x0, [sp, #24]
   827e0:	f100001f 	cmp	x0, #0x0
   827e4:	54000080 	b.eq	827f4 <align_by_4+0x3c>  // b.none
   827e8:	f94007e0 	ldr	x0, [sp, #8]
   827ec:	91001000 	add	x0, x0, #0x4
   827f0:	f90007e0 	str	x0, [sp, #8]
   827f4:	f94007e0 	ldr	x0, [sp, #8]
   827f8:	910083ff 	add	sp, sp, #0x20
   827fc:	d65f03c0 	ret

0000000000082800 <simple_malloc>:
   82800:	d10083ff 	sub	sp, sp, #0x20
   82804:	b9000fe0 	str	w0, [sp, #12]
   82808:	f0000000 	adrp	x0, 85000 <main+0x83c>
   8280c:	91264000 	add	x0, x0, #0x990
   82810:	f9400000 	ldr	x0, [x0]
   82814:	f9000fe0 	str	x0, [sp, #24]
   82818:	f0000000 	adrp	x0, 85000 <main+0x83c>
   8281c:	91264000 	add	x0, x0, #0x990
   82820:	f9400001 	ldr	x1, [x0]
   82824:	b9400fe0 	ldr	w0, [sp, #12]
   82828:	8b000021 	add	x1, x1, x0
   8282c:	f0000000 	adrp	x0, 85000 <main+0x83c>
   82830:	91264000 	add	x0, x0, #0x990
   82834:	f9000001 	str	x1, [x0]
   82838:	f9400fe0 	ldr	x0, [sp, #24]
   8283c:	910083ff 	add	sp, sp, #0x20
   82840:	d65f03c0 	ret

0000000000082844 <unsignedlonglongToStrHex>:
   82844:	d10083ff 	sub	sp, sp, #0x20
   82848:	f90007e0 	str	x0, [sp, #8]
   8284c:	f90003e1 	str	x1, [sp]
   82850:	b9001fff 	str	wzr, [sp, #28]
   82854:	52800780 	mov	w0, #0x3c                  	// #60
   82858:	b9001be0 	str	w0, [sp, #24]
   8285c:	1400001b 	b	828c8 <unsignedlonglongToStrHex+0x84>
   82860:	b9401be0 	ldr	w0, [sp, #24]
   82864:	f94007e1 	ldr	x1, [sp, #8]
   82868:	9ac02420 	lsr	x0, x1, x0
   8286c:	12000c00 	and	w0, w0, #0xf
   82870:	b90017e0 	str	w0, [sp, #20]
   82874:	b94017e0 	ldr	w0, [sp, #20]
   82878:	7100241f 	cmp	w0, #0x9
   8287c:	54000069 	b.ls	82888 <unsignedlonglongToStrHex+0x44>  // b.plast
   82880:	528006e0 	mov	w0, #0x37                  	// #55
   82884:	14000002 	b	8288c <unsignedlonglongToStrHex+0x48>
   82888:	52800600 	mov	w0, #0x30                  	// #48
   8288c:	b94017e1 	ldr	w1, [sp, #20]
   82890:	0b000020 	add	w0, w1, w0
   82894:	b90017e0 	str	w0, [sp, #20]
   82898:	b9801fe0 	ldrsw	x0, [sp, #28]
   8289c:	f94003e1 	ldr	x1, [sp]
   828a0:	8b000020 	add	x0, x1, x0
   828a4:	b94017e1 	ldr	w1, [sp, #20]
   828a8:	12001c21 	and	w1, w1, #0xff
   828ac:	39000001 	strb	w1, [x0]
   828b0:	b9401be0 	ldr	w0, [sp, #24]
   828b4:	51001000 	sub	w0, w0, #0x4
   828b8:	b9001be0 	str	w0, [sp, #24]
   828bc:	b9401fe0 	ldr	w0, [sp, #28]
   828c0:	11000400 	add	w0, w0, #0x1
   828c4:	b9001fe0 	str	w0, [sp, #28]
   828c8:	b9401be0 	ldr	w0, [sp, #24]
   828cc:	7100001f 	cmp	w0, #0x0
   828d0:	54fffc8a 	b.ge	82860 <unsignedlonglongToStrHex+0x1c>  // b.tcont
   828d4:	f94003e0 	ldr	x0, [sp]
   828d8:	91004000 	add	x0, x0, #0x10
   828dc:	3900001f 	strb	wzr, [x0]
   828e0:	d503201f 	nop
   828e4:	910083ff 	add	sp, sp, #0x20
   828e8:	d65f03c0 	ret

00000000000828ec <isdigit>:
   828ec:	d10043ff 	sub	sp, sp, #0x10
   828f0:	39003fe0 	strb	w0, [sp, #15]
   828f4:	39403fe0 	ldrb	w0, [sp, #15]
   828f8:	7100e41f 	cmp	w0, #0x39
   828fc:	54000088 	b.hi	8290c <isdigit+0x20>  // b.pmore
   82900:	39403fe0 	ldrb	w0, [sp, #15]
   82904:	7100bc1f 	cmp	w0, #0x2f
   82908:	54000068 	b.hi	82914 <isdigit+0x28>  // b.pmore
   8290c:	52800000 	mov	w0, #0x0                   	// #0
   82910:	14000002 	b	82918 <isdigit+0x2c>
   82914:	52800020 	mov	w0, #0x1                   	// #1
   82918:	910043ff 	add	sp, sp, #0x10
   8291c:	d65f03c0 	ret

0000000000082920 <fdt_parser>:
   82920:	a9ba7bfd 	stp	x29, x30, [sp, #-96]!
   82924:	910003fd 	mov	x29, sp
   82928:	f9000fe0 	str	x0, [sp, #24]
   8292c:	f9000be1 	str	x1, [sp, #16]
   82930:	f9400fe0 	ldr	x0, [sp, #24]
   82934:	b9400001 	ldr	w1, [x0]
   82938:	5281ba00 	mov	w0, #0xdd0                 	// #3536
   8293c:	72bdbfc0 	movk	w0, #0xedfe, lsl #16
   82940:	6b00003f 	cmp	w1, w0
   82944:	540011e1 	b.ne	82b80 <fdt_parser+0x260>  // b.any
   82948:	f9400fe0 	ldr	x0, [sp, #24]
   8294c:	b9400800 	ldr	w0, [x0, #8]
   82950:	53187c01 	lsr	w1, w0, #24
   82954:	f9400fe0 	ldr	x0, [sp, #24]
   82958:	b9400800 	ldr	w0, [x0, #8]
   8295c:	53087c00 	lsr	w0, w0, #8
   82960:	12181c00 	and	w0, w0, #0xff00
   82964:	2a000021 	orr	w1, w1, w0
   82968:	f9400fe0 	ldr	x0, [sp, #24]
   8296c:	b9400800 	ldr	w0, [x0, #8]
   82970:	53185c00 	lsl	w0, w0, #8
   82974:	12101c00 	and	w0, w0, #0xff0000
   82978:	2a000021 	orr	w1, w1, w0
   8297c:	f9400fe0 	ldr	x0, [sp, #24]
   82980:	b9400800 	ldr	w0, [x0, #8]
   82984:	53081c00 	lsl	w0, w0, #24
   82988:	2a000020 	orr	w0, w1, w0
   8298c:	2a0003e0 	mov	w0, w0
   82990:	f9400fe1 	ldr	x1, [sp, #24]
   82994:	8b000020 	add	x0, x1, x0
   82998:	f9002fe0 	str	x0, [sp, #88]
   8299c:	f9400fe0 	ldr	x0, [sp, #24]
   829a0:	b9400c00 	ldr	w0, [x0, #12]
   829a4:	53187c01 	lsr	w1, w0, #24
   829a8:	f9400fe0 	ldr	x0, [sp, #24]
   829ac:	b9400c00 	ldr	w0, [x0, #12]
   829b0:	53087c00 	lsr	w0, w0, #8
   829b4:	12181c00 	and	w0, w0, #0xff00
   829b8:	2a000021 	orr	w1, w1, w0
   829bc:	f9400fe0 	ldr	x0, [sp, #24]
   829c0:	b9400c00 	ldr	w0, [x0, #12]
   829c4:	53185c00 	lsl	w0, w0, #8
   829c8:	12101c00 	and	w0, w0, #0xff0000
   829cc:	2a000021 	orr	w1, w1, w0
   829d0:	f9400fe0 	ldr	x0, [sp, #24]
   829d4:	b9400c00 	ldr	w0, [x0, #12]
   829d8:	53081c00 	lsl	w0, w0, #24
   829dc:	2a000020 	orr	w0, w1, w0
   829e0:	2a0003e0 	mov	w0, w0
   829e4:	f9400fe1 	ldr	x1, [sp, #24]
   829e8:	8b000020 	add	x0, x1, x0
   829ec:	f90027e0 	str	x0, [sp, #72]
   829f0:	f9402fe0 	ldr	x0, [sp, #88]
   829f4:	b9400000 	ldr	w0, [x0]
   829f8:	53187c01 	lsr	w1, w0, #24
   829fc:	f9402fe0 	ldr	x0, [sp, #88]
   82a00:	b9400000 	ldr	w0, [x0]
   82a04:	53087c00 	lsr	w0, w0, #8
   82a08:	12181c00 	and	w0, w0, #0xff00
   82a0c:	2a000021 	orr	w1, w1, w0
   82a10:	f9402fe0 	ldr	x0, [sp, #88]
   82a14:	b9400000 	ldr	w0, [x0]
   82a18:	53185c00 	lsl	w0, w0, #8
   82a1c:	12101c00 	and	w0, w0, #0xff0000
   82a20:	2a000021 	orr	w1, w1, w0
   82a24:	f9402fe0 	ldr	x0, [sp, #88]
   82a28:	b9400000 	ldr	w0, [x0]
   82a2c:	53081c00 	lsl	w0, w0, #24
   82a30:	2a000020 	orr	w0, w1, w0
   82a34:	b90047e0 	str	w0, [sp, #68]
   82a38:	b94047e0 	ldr	w0, [sp, #68]
   82a3c:	7100241f 	cmp	w0, #0x9
   82a40:	54000a40 	b.eq	82b88 <fdt_parser+0x268>  // b.none
   82a44:	b94047e0 	ldr	w0, [sp, #68]
   82a48:	7100041f 	cmp	w0, #0x1
   82a4c:	54000201 	b.ne	82a8c <fdt_parser+0x16c>  // b.any
   82a50:	f9402fe0 	ldr	x0, [sp, #88]
   82a54:	91001000 	add	x0, x0, #0x4
   82a58:	f9002be0 	str	x0, [sp, #80]
   82a5c:	f9402be0 	ldr	x0, [sp, #80]
   82a60:	97fffc4b 	bl	81b8c <strlen>
   82a64:	11000400 	add	w0, w0, #0x1
   82a68:	b9002fe0 	str	w0, [sp, #44]
   82a6c:	b9402fe0 	ldr	w0, [sp, #44]
   82a70:	97ffff52 	bl	827b8 <align_by_4>
   82a74:	d342fc00 	lsr	x0, x0, #2
   82a78:	d37ef400 	lsl	x0, x0, #2
   82a7c:	f9402fe1 	ldr	x1, [sp, #88]
   82a80:	8b000020 	add	x0, x1, x0
   82a84:	f9002fe0 	str	x0, [sp, #88]
   82a88:	1400003a 	b	82b70 <fdt_parser+0x250>
   82a8c:	b94047e0 	ldr	w0, [sp, #68]
   82a90:	71000c1f 	cmp	w0, #0x3
   82a94:	540006e1 	b.ne	82b70 <fdt_parser+0x250>  // b.any
   82a98:	f9402fe0 	ldr	x0, [sp, #88]
   82a9c:	91001000 	add	x0, x0, #0x4
   82aa0:	f9001fe0 	str	x0, [sp, #56]
   82aa4:	f9401fe0 	ldr	x0, [sp, #56]
   82aa8:	b9400000 	ldr	w0, [x0]
   82aac:	53187c01 	lsr	w1, w0, #24
   82ab0:	f9401fe0 	ldr	x0, [sp, #56]
   82ab4:	b9400000 	ldr	w0, [x0]
   82ab8:	53087c00 	lsr	w0, w0, #8
   82abc:	12181c00 	and	w0, w0, #0xff00
   82ac0:	2a000021 	orr	w1, w1, w0
   82ac4:	f9401fe0 	ldr	x0, [sp, #56]
   82ac8:	b9400000 	ldr	w0, [x0]
   82acc:	53185c00 	lsl	w0, w0, #8
   82ad0:	12101c00 	and	w0, w0, #0xff0000
   82ad4:	2a000021 	orr	w1, w1, w0
   82ad8:	f9401fe0 	ldr	x0, [sp, #56]
   82adc:	b9400000 	ldr	w0, [x0]
   82ae0:	53081c00 	lsl	w0, w0, #24
   82ae4:	2a000020 	orr	w0, w1, w0
   82ae8:	2a0003e0 	mov	w0, w0
   82aec:	97ffff33 	bl	827b8 <align_by_4>
   82af0:	91002000 	add	x0, x0, #0x8
   82af4:	d342fc00 	lsr	x0, x0, #2
   82af8:	d37ef400 	lsl	x0, x0, #2
   82afc:	f9402fe1 	ldr	x1, [sp, #88]
   82b00:	8b000020 	add	x0, x1, x0
   82b04:	f9002fe0 	str	x0, [sp, #88]
   82b08:	f9401fe0 	ldr	x0, [sp, #56]
   82b0c:	b9400400 	ldr	w0, [x0, #4]
   82b10:	53187c01 	lsr	w1, w0, #24
   82b14:	f9401fe0 	ldr	x0, [sp, #56]
   82b18:	b9400400 	ldr	w0, [x0, #4]
   82b1c:	53087c00 	lsr	w0, w0, #8
   82b20:	12181c00 	and	w0, w0, #0xff00
   82b24:	2a000021 	orr	w1, w1, w0
   82b28:	f9401fe0 	ldr	x0, [sp, #56]
   82b2c:	b9400400 	ldr	w0, [x0, #4]
   82b30:	53185c00 	lsl	w0, w0, #8
   82b34:	12101c00 	and	w0, w0, #0xff0000
   82b38:	2a000021 	orr	w1, w1, w0
   82b3c:	f9401fe0 	ldr	x0, [sp, #56]
   82b40:	b9400400 	ldr	w0, [x0, #4]
   82b44:	53081c00 	lsl	w0, w0, #24
   82b48:	2a000020 	orr	w0, w1, w0
   82b4c:	2a0003e0 	mov	w0, w0
   82b50:	f94027e1 	ldr	x1, [sp, #72]
   82b54:	8b000020 	add	x0, x1, x0
   82b58:	f9001be0 	str	x0, [sp, #48]
   82b5c:	f9400be3 	ldr	x3, [sp, #16]
   82b60:	f9401be2 	ldr	x2, [sp, #48]
   82b64:	f9402be1 	ldr	x1, [sp, #80]
   82b68:	f9401fe0 	ldr	x0, [sp, #56]
   82b6c:	d63f0060 	blr	x3
   82b70:	f9402fe0 	ldr	x0, [sp, #88]
   82b74:	91001000 	add	x0, x0, #0x4
   82b78:	f9002fe0 	str	x0, [sp, #88]
   82b7c:	17ffff9d 	b	829f0 <fdt_parser+0xd0>
   82b80:	d503201f 	nop
   82b84:	14000002 	b	82b8c <fdt_parser+0x26c>
   82b88:	d503201f 	nop
   82b8c:	a8c67bfd 	ldp	x29, x30, [sp], #96
   82b90:	d65f03c0 	ret

0000000000082b94 <initramfs_callback>:
   82b94:	a9bc7bfd 	stp	x29, x30, [sp, #-64]!
   82b98:	910003fd 	mov	x29, sp
   82b9c:	f90017e0 	str	x0, [sp, #40]
   82ba0:	f90013e1 	str	x1, [sp, #32]
   82ba4:	f9000fe2 	str	x2, [sp, #24]
   82ba8:	d0000000 	adrp	x0, 84000 <buddy_merge+0xb0>
   82bac:	9134c001 	add	x1, x0, #0xd30
   82bb0:	f9400fe0 	ldr	x0, [sp, #24]
   82bb4:	97fffb76 	bl	8198c <strcmp>
   82bb8:	7100001f 	cmp	w0, #0x0
   82bbc:	54000441 	b.ne	82c44 <initramfs_callback+0xb0>  // b.any
   82bc0:	f94017e0 	ldr	x0, [sp, #40]
   82bc4:	91002000 	add	x0, x0, #0x8
   82bc8:	f9001fe0 	str	x0, [sp, #56]
   82bcc:	f9401fe0 	ldr	x0, [sp, #56]
   82bd0:	b9400000 	ldr	w0, [x0]
   82bd4:	53187c01 	lsr	w1, w0, #24
   82bd8:	f9401fe0 	ldr	x0, [sp, #56]
   82bdc:	b9400000 	ldr	w0, [x0]
   82be0:	53087c00 	lsr	w0, w0, #8
   82be4:	12181c00 	and	w0, w0, #0xff00
   82be8:	2a000021 	orr	w1, w1, w0
   82bec:	f9401fe0 	ldr	x0, [sp, #56]
   82bf0:	b9400000 	ldr	w0, [x0]
   82bf4:	53185c00 	lsl	w0, w0, #8
   82bf8:	12101c00 	and	w0, w0, #0xff0000
   82bfc:	2a000021 	orr	w1, w1, w0
   82c00:	f9401fe0 	ldr	x0, [sp, #56]
   82c04:	b9400000 	ldr	w0, [x0]
   82c08:	53081c00 	lsl	w0, w0, #24
   82c0c:	2a000021 	orr	w1, w1, w0
   82c10:	f0000000 	adrp	x0, 85000 <main+0x83c>
   82c14:	f944a000 	ldr	x0, [x0, #2368]
   82c18:	b9000001 	str	w1, [x0]
   82c1c:	d0000000 	adrp	x0, 84000 <buddy_merge+0xb0>
   82c20:	91352000 	add	x0, x0, #0xd48
   82c24:	97fffc58 	bl	81d84 <uart_puts>
   82c28:	f0000000 	adrp	x0, 85000 <main+0x83c>
   82c2c:	f944a000 	ldr	x0, [x0, #2368]
   82c30:	b9400000 	ldr	w0, [x0]
   82c34:	97fffc6b 	bl	81de0 <uart_hex>
   82c38:	d0000000 	adrp	x0, 84000 <buddy_merge+0xb0>
   82c3c:	91358000 	add	x0, x0, #0xd60
   82c40:	97fffc51 	bl	81d84 <uart_puts>
   82c44:	d503201f 	nop
   82c48:	a8c47bfd 	ldp	x29, x30, [sp], #64
   82c4c:	d65f03c0 	ret

0000000000082c50 <exec>:
   82c50:	a9b97bfd 	stp	x29, x30, [sp, #-112]!
   82c54:	910003fd 	mov	x29, sp
   82c58:	f90017e0 	str	x0, [sp, #40]
   82c5c:	f90013e1 	str	x1, [sp, #32]
   82c60:	b9001fe2 	str	w2, [sp, #28]
   82c64:	b90063ff 	str	wzr, [sp, #96]
   82c68:	f94017e0 	ldr	x0, [sp, #40]
   82c6c:	f90037e0 	str	x0, [sp, #104]
   82c70:	d2a000c0 	mov	x0, #0x60000               	// #393216
   82c74:	f9002fe0 	str	x0, [sp, #88]
   82c78:	9100e3e3 	add	x3, sp, #0x38
   82c7c:	910103e2 	add	x2, sp, #0x40
   82c80:	910123e1 	add	x1, sp, #0x48
   82c84:	910143e0 	add	x0, sp, #0x50
   82c88:	aa0303e4 	mov	x4, x3
   82c8c:	aa0203e3 	mov	x3, x2
   82c90:	aa0103e2 	mov	x2, x1
   82c94:	aa0003e1 	mov	x1, x0
   82c98:	f94037e0 	ldr	x0, [sp, #104]
   82c9c:	97fffe24 	bl	8252c <cpio_header_parser>
   82ca0:	b90063e0 	str	w0, [sp, #96]
   82ca4:	b94063e0 	ldr	w0, [sp, #96]
   82ca8:	7100001f 	cmp	w0, #0x0
   82cac:	540000a0 	b.eq	82cc0 <exec+0x70>  // b.none
   82cb0:	d0000000 	adrp	x0, 84000 <buddy_merge+0xb0>
   82cb4:	9135a000 	add	x0, x0, #0xd68
   82cb8:	97fffc33 	bl	81d84 <uart_puts>
   82cbc:	1400002b 	b	82d68 <exec+0x118>
   82cc0:	f9402be0 	ldr	x0, [sp, #80]
   82cc4:	aa0003e1 	mov	x1, x0
   82cc8:	f94013e0 	ldr	x0, [sp, #32]
   82ccc:	97fffb30 	bl	8198c <strcmp>
   82cd0:	7100001f 	cmp	w0, #0x0
   82cd4:	54000441 	b.ne	82d5c <exec+0x10c>  // b.any
   82cd8:	b90067ff 	str	wzr, [sp, #100]
   82cdc:	1400000c 	b	82d0c <exec+0xbc>
   82ce0:	f94023e1 	ldr	x1, [sp, #64]
   82ce4:	b98067e0 	ldrsw	x0, [sp, #100]
   82ce8:	8b000021 	add	x1, x1, x0
   82cec:	b98067e0 	ldrsw	x0, [sp, #100]
   82cf0:	f9402fe2 	ldr	x2, [sp, #88]
   82cf4:	8b000040 	add	x0, x2, x0
   82cf8:	39400021 	ldrb	w1, [x1]
   82cfc:	39000001 	strb	w1, [x0]
   82d00:	b94067e0 	ldr	w0, [sp, #100]
   82d04:	11000400 	add	w0, w0, #0x1
   82d08:	b90067e0 	str	w0, [sp, #100]
   82d0c:	b98067e1 	ldrsw	x1, [sp, #100]
   82d10:	f94027e0 	ldr	x0, [sp, #72]
   82d14:	eb00003f 	cmp	x1, x0
   82d18:	54fffe43 	b.cc	82ce0 <exec+0x90>  // b.lo, b.ul, b.last
   82d1c:	b9401fe0 	ldr	w0, [sp, #28]
   82d20:	7100001f 	cmp	w0, #0x0
   82d24:	54000040 	b.eq	82d2c <exec+0xdc>  // b.none
   82d28:	94000094 	bl	82f78 <core_timer_enable>
   82d2c:	d2806800 	mov	x0, #0x340                 	// #832
   82d30:	f9001be0 	str	x0, [sp, #48]
   82d34:	f9401be0 	ldr	x0, [sp, #48]
   82d38:	d5184000 	msr	spsr_el1, x0
   82d3c:	d2a000c0 	mov	x0, #0x60000               	// #393216
   82d40:	f9001be0 	str	x0, [sp, #48]
   82d44:	f9401be0 	ldr	x0, [sp, #48]
   82d48:	d5184020 	msr	elr_el1, x0
   82d4c:	f9401be0 	ldr	x0, [sp, #48]
   82d50:	d5184100 	msr	sp_el0, x0
   82d54:	d69f03e0 	eret
   82d58:	14000004 	b	82d68 <exec+0x118>
   82d5c:	f9401fe0 	ldr	x0, [sp, #56]
   82d60:	f90037e0 	str	x0, [sp, #104]
   82d64:	17ffffc5 	b	82c78 <exec+0x28>
   82d68:	d503201f 	nop
   82d6c:	a8c77bfd 	ldp	x29, x30, [sp], #112
   82d70:	d65f03c0 	ret

0000000000082d74 <no_exception_handle>:
   82d74:	d503201f 	nop
   82d78:	d65f03c0 	ret

0000000000082d7c <lowerEL_sync_interrupt_handle>:
   82d7c:	a9bd7bfd 	stp	x29, x30, [sp, #-48]!
   82d80:	910003fd 	mov	x29, sp
   82d84:	d5384000 	mrs	x0, spsr_el1
   82d88:	f90017e0 	str	x0, [sp, #40]
   82d8c:	d5384020 	mrs	x0, elr_el1
   82d90:	f90013e0 	str	x0, [sp, #32]
   82d94:	d5385200 	mrs	x0, esr_el1
   82d98:	f9000fe0 	str	x0, [sp, #24]
   82d9c:	d0000000 	adrp	x0, 84000 <buddy_merge+0xb0>
   82da0:	9135e000 	add	x0, x0, #0xd78
   82da4:	97fffbf8 	bl	81d84 <uart_puts>
   82da8:	f94017e0 	ldr	x0, [sp, #40]
   82dac:	97fffc0d 	bl	81de0 <uart_hex>
   82db0:	d0000000 	adrp	x0, 84000 <buddy_merge+0xb0>
   82db4:	91362000 	add	x0, x0, #0xd88
   82db8:	97fffbf3 	bl	81d84 <uart_puts>
   82dbc:	d0000000 	adrp	x0, 84000 <buddy_merge+0xb0>
   82dc0:	91364000 	add	x0, x0, #0xd90
   82dc4:	97fffbf0 	bl	81d84 <uart_puts>
   82dc8:	f94013e0 	ldr	x0, [sp, #32]
   82dcc:	97fffc05 	bl	81de0 <uart_hex>
   82dd0:	d0000000 	adrp	x0, 84000 <buddy_merge+0xb0>
   82dd4:	91362000 	add	x0, x0, #0xd88
   82dd8:	97fffbeb 	bl	81d84 <uart_puts>
   82ddc:	d0000000 	adrp	x0, 84000 <buddy_merge+0xb0>
   82de0:	91368000 	add	x0, x0, #0xda0
   82de4:	97fffbe8 	bl	81d84 <uart_puts>
   82de8:	f9400fe0 	ldr	x0, [sp, #24]
   82dec:	97fffbfd 	bl	81de0 <uart_hex>
   82df0:	d0000000 	adrp	x0, 84000 <buddy_merge+0xb0>
   82df4:	91362000 	add	x0, x0, #0xd88
   82df8:	97fffbe3 	bl	81d84 <uart_puts>
   82dfc:	d503201f 	nop
   82e00:	a8c37bfd 	ldp	x29, x30, [sp], #48
   82e04:	d65f03c0 	ret

0000000000082e08 <lowerEL_irq_router>:
   82e08:	a9be7bfd 	stp	x29, x30, [sp, #-32]!
   82e0c:	910003fd 	mov	x29, sp
   82e10:	d2800c00 	mov	x0, #0x60                  	// #96
   82e14:	f2a80000 	movk	x0, #0x4000, lsl #16
   82e18:	b9400000 	ldr	w0, [x0]
   82e1c:	121f0000 	and	w0, w0, #0x2
   82e20:	b9001fe0 	str	w0, [sp, #28]
   82e24:	d2964080 	mov	x0, #0xb204                	// #45572
   82e28:	f2a7e000 	movk	x0, #0x3f00, lsl #16
   82e2c:	b9400000 	ldr	w0, [x0]
   82e30:	12030000 	and	w0, w0, #0x20000000
   82e34:	b9001be0 	str	w0, [sp, #24]
   82e38:	b9401fe0 	ldr	w0, [sp, #28]
   82e3c:	7100001f 	cmp	w0, #0x0
   82e40:	54000060 	b.eq	82e4c <lowerEL_irq_router+0x44>  // b.none
   82e44:	9400006b 	bl	82ff0 <core_timer_interrupt>
   82e48:	14000005 	b	82e5c <lowerEL_irq_router+0x54>
   82e4c:	b9401be0 	ldr	w0, [sp, #24]
   82e50:	7100001f 	cmp	w0, #0x0
   82e54:	54000040 	b.eq	82e5c <lowerEL_irq_router+0x54>  // b.none
   82e58:	97fffc62 	bl	81fe0 <mini_uart_interrupt_handler>
   82e5c:	d503201f 	nop
   82e60:	a8c27bfd 	ldp	x29, x30, [sp], #32
   82e64:	d65f03c0 	ret

0000000000082e68 <currentEL_irq_router>:
   82e68:	a9be7bfd 	stp	x29, x30, [sp, #-32]!
   82e6c:	910003fd 	mov	x29, sp
   82e70:	d2800c00 	mov	x0, #0x60                  	// #96
   82e74:	f2a80000 	movk	x0, #0x4000, lsl #16
   82e78:	b9400000 	ldr	w0, [x0]
   82e7c:	121f0000 	and	w0, w0, #0x2
   82e80:	b9001fe0 	str	w0, [sp, #28]
   82e84:	d2964080 	mov	x0, #0xb204                	// #45572
   82e88:	f2a7e000 	movk	x0, #0x3f00, lsl #16
   82e8c:	b9400000 	ldr	w0, [x0]
   82e90:	12030000 	and	w0, w0, #0x20000000
   82e94:	b9001be0 	str	w0, [sp, #24]
   82e98:	b9401fe0 	ldr	w0, [sp, #28]
   82e9c:	7100001f 	cmp	w0, #0x0
   82ea0:	54000060 	b.eq	82eac <currentEL_irq_router+0x44>  // b.none
   82ea4:	9400018d 	bl	834d8 <timeout_handler>
   82ea8:	14000005 	b	82ebc <currentEL_irq_router+0x54>
   82eac:	b9401be0 	ldr	w0, [sp, #24]
   82eb0:	7100001f 	cmp	w0, #0x0
   82eb4:	54000040 	b.eq	82ebc <currentEL_irq_router+0x54>  // b.none
   82eb8:	97fffc4a 	bl	81fe0 <mini_uart_interrupt_handler>
   82ebc:	d503201f 	nop
   82ec0:	a8c27bfd 	ldp	x29, x30, [sp], #32
   82ec4:	d65f03c0 	ret

0000000000082ec8 <enable_interrupt>:
   82ec8:	d10043ff 	sub	sp, sp, #0x10
   82ecc:	b9000fe0 	str	w0, [sp, #12]
   82ed0:	b9400fe0 	ldr	w0, [sp, #12]
   82ed4:	7100001f 	cmp	w0, #0x0
   82ed8:	54000060 	b.eq	82ee4 <enable_interrupt+0x1c>  // b.none
   82edc:	d5034fff 	msr	daifclr, #0xf
   82ee0:	14000002 	b	82ee8 <enable_interrupt+0x20>
   82ee4:	d5034fdf 	msr	daifset, #0xf
   82ee8:	d503201f 	nop
   82eec:	910043ff 	add	sp, sp, #0x10
   82ef0:	d65f03c0 	ret

0000000000082ef4 <irq_router>:
   82ef4:	a9bd7bfd 	stp	x29, x30, [sp, #-48]!
   82ef8:	910003fd 	mov	x29, sp
   82efc:	f90017ff 	str	xzr, [sp, #40]
   82f00:	f90013ff 	str	xzr, [sp, #32]
   82f04:	52800000 	mov	w0, #0x0                   	// #0
   82f08:	97fffff0 	bl	82ec8 <enable_interrupt>
   82f0c:	d2800c00 	mov	x0, #0x60                  	// #96
   82f10:	f2a80000 	movk	x0, #0x4000, lsl #16
   82f14:	b9400000 	ldr	w0, [x0]
   82f18:	121f0000 	and	w0, w0, #0x2
   82f1c:	b9001fe0 	str	w0, [sp, #28]
   82f20:	d2964080 	mov	x0, #0xb204                	// #45572
   82f24:	f2a7e000 	movk	x0, #0x3f00, lsl #16
   82f28:	b9400000 	ldr	w0, [x0]
   82f2c:	12030000 	and	w0, w0, #0x20000000
   82f30:	b9001be0 	str	w0, [sp, #24]
   82f34:	b9401fe0 	ldr	w0, [sp, #28]
   82f38:	7100001f 	cmp	w0, #0x0
   82f3c:	540000a0 	b.eq	82f50 <irq_router+0x5c>  // b.none
   82f40:	f0000000 	adrp	x0, 85000 <main+0x83c>
   82f44:	f944b000 	ldr	x0, [x0, #2400]
   82f48:	f90013e0 	str	x0, [sp, #32]
   82f4c:	14000007 	b	82f68 <irq_router+0x74>
   82f50:	b9401be0 	ldr	w0, [sp, #24]
   82f54:	7100001f 	cmp	w0, #0x0
   82f58:	54000080 	b.eq	82f68 <irq_router+0x74>  // b.none
   82f5c:	f0000000 	adrp	x0, 85000 <main+0x83c>
   82f60:	f9448c00 	ldr	x0, [x0, #2328]
   82f64:	f90013e0 	str	x0, [sp, #32]
   82f68:	d503201f 	nop
   82f6c:	a8c37bfd 	ldp	x29, x30, [sp], #48
   82f70:	d65f03c0 	ret
   82f74:	00000000 	.inst	0x00000000 ; undefined

0000000000082f78 <core_timer_enable>:
   82f78:	d2800021 	mov	x1, #0x1                   	// #1
   82f7c:	d51be221 	msr	cntp_ctl_el0, x1
   82f80:	d53be001 	mrs	x1, cntfrq_el0
   82f84:	d51be201 	msr	cntp_tval_el0, x1
   82f88:	d2800041 	mov	x1, #0x2                   	// #2
   82f8c:	58003664 	ldr	x4, 83658 <print_timout_msg+0x88>
   82f90:	b9000081 	str	w1, [x4]
   82f94:	d503201f 	nop
   82f98:	d65f03c0 	ret

0000000000082f9c <core_timer_disable>:
   82f9c:	f81f0ff3 	str	x19, [sp, #-16]!
   82fa0:	52800013 	mov	w19, #0x0                   	// #0
   82fa4:	d51be233 	msr	cntp_ctl_el0, x19
   82fa8:	d2800800 	mov	x0, #0x40                  	// #64
   82fac:	f2a80000 	movk	x0, #0x4000, lsl #16
   82fb0:	b900001f 	str	wzr, [x0]
   82fb4:	d503201f 	nop
   82fb8:	f84107f3 	ldr	x19, [sp], #16
   82fbc:	d65f03c0 	ret

0000000000082fc0 <cur_time>:
   82fc0:	d10083ff 	sub	sp, sp, #0x20
   82fc4:	d53be020 	mrs	x0, cntpct_el0
   82fc8:	f9000fe0 	str	x0, [sp, #24]
   82fcc:	d53be000 	mrs	x0, cntfrq_el0
   82fd0:	f9000be0 	str	x0, [sp, #16]
   82fd4:	f9400fe1 	ldr	x1, [sp, #24]
   82fd8:	f9400be0 	ldr	x0, [sp, #16]
   82fdc:	9ac00820 	udiv	x0, x1, x0
   82fe0:	f90007e0 	str	x0, [sp, #8]
   82fe4:	f94007e0 	ldr	x0, [sp, #8]
   82fe8:	910083ff 	add	sp, sp, #0x20
   82fec:	d65f03c0 	ret

0000000000082ff0 <core_timer_interrupt>:
   82ff0:	a9be7bfd 	stp	x29, x30, [sp, #-32]!
   82ff4:	910003fd 	mov	x29, sp
   82ff8:	97fffff2 	bl	82fc0 <cur_time>
   82ffc:	f9000fe0 	str	x0, [sp, #24]
   83000:	b0000000 	adrp	x0, 84000 <buddy_merge+0xb0>
   83004:	9136c000 	add	x0, x0, #0xdb0
   83008:	97fffb5f 	bl	81d84 <uart_puts>
   8300c:	f9400fe0 	ldr	x0, [sp, #24]
   83010:	97fffb74 	bl	81de0 <uart_hex>
   83014:	b0000000 	adrp	x0, 84000 <buddy_merge+0xb0>
   83018:	91372000 	add	x0, x0, #0xdc8
   8301c:	97fffb5a 	bl	81d84 <uart_puts>
   83020:	52800040 	mov	w0, #0x2                   	// #2
   83024:	94000004 	bl	83034 <set_next_timeout>
   83028:	d503201f 	nop
   8302c:	a8c27bfd 	ldp	x29, x30, [sp], #32
   83030:	d65f03c0 	ret

0000000000083034 <set_next_timeout>:
   83034:	d10083ff 	sub	sp, sp, #0x20
   83038:	b9000fe0 	str	w0, [sp, #12]
   8303c:	d53be000 	mrs	x0, cntfrq_el0
   83040:	f9000fe0 	str	x0, [sp, #24]
   83044:	b9400fe1 	ldr	w1, [sp, #12]
   83048:	f9400fe0 	ldr	x0, [sp, #24]
   8304c:	9b007c20 	mul	x0, x1, x0
   83050:	f9000be0 	str	x0, [sp, #16]
   83054:	f9400be0 	ldr	x0, [sp, #16]
   83058:	d51be200 	msr	cntp_tval_el0, x0
   8305c:	d503201f 	nop
   83060:	910083ff 	add	sp, sp, #0x20
   83064:	d65f03c0 	ret

0000000000083068 <init_timeout>:
   83068:	d10043ff 	sub	sp, sp, #0x10
   8306c:	b9000fff 	str	wzr, [sp, #12]
   83070:	1400001f 	b	830ec <init_timeout+0x84>
   83074:	d0000000 	adrp	x0, 85000 <main+0x83c>
   83078:	f9448802 	ldr	x2, [x0, #2320]
   8307c:	b9800fe1 	ldrsw	x1, [sp, #12]
   83080:	aa0103e0 	mov	x0, x1
   83084:	d37df000 	lsl	x0, x0, #3
   83088:	cb010000 	sub	x0, x0, x1
   8308c:	d37df000 	lsl	x0, x0, #3
   83090:	8b000040 	add	x0, x2, x0
   83094:	f900041f 	str	xzr, [x0, #8]
   83098:	d0000000 	adrp	x0, 85000 <main+0x83c>
   8309c:	f9448802 	ldr	x2, [x0, #2320]
   830a0:	b9800fe1 	ldrsw	x1, [sp, #12]
   830a4:	aa0103e0 	mov	x0, x1
   830a8:	d37df000 	lsl	x0, x0, #3
   830ac:	cb010000 	sub	x0, x0, x1
   830b0:	d37df000 	lsl	x0, x0, #3
   830b4:	8b000040 	add	x0, x2, x0
   830b8:	f900001f 	str	xzr, [x0]
   830bc:	d0000000 	adrp	x0, 85000 <main+0x83c>
   830c0:	f9448802 	ldr	x2, [x0, #2320]
   830c4:	b9800fe1 	ldrsw	x1, [sp, #12]
   830c8:	aa0103e0 	mov	x0, x1
   830cc:	d37df000 	lsl	x0, x0, #3
   830d0:	cb010000 	sub	x0, x0, x1
   830d4:	d37df000 	lsl	x0, x0, #3
   830d8:	8b000040 	add	x0, x2, x0
   830dc:	f900181f 	str	xzr, [x0, #48]
   830e0:	b9400fe0 	ldr	w0, [sp, #12]
   830e4:	11000400 	add	w0, w0, #0x1
   830e8:	b9000fe0 	str	w0, [sp, #12]
   830ec:	b9400fe0 	ldr	w0, [sp, #12]
   830f0:	71004c1f 	cmp	w0, #0x13
   830f4:	54fffc0d 	b.le	83074 <init_timeout+0xc>
   830f8:	d0000000 	adrp	x0, 85000 <main+0x83c>
   830fc:	f944a400 	ldr	x0, [x0, #2376]
   83100:	f900001f 	str	xzr, [x0]
   83104:	d0000000 	adrp	x0, 85000 <main+0x83c>
   83108:	f9448400 	ldr	x0, [x0, #2312]
   8310c:	b900001f 	str	wzr, [x0]
   83110:	d503201f 	nop
   83114:	910043ff 	add	sp, sp, #0x10
   83118:	d65f03c0 	ret

000000000008311c <add_timer>:
   8311c:	a9bb7bfd 	stp	x29, x30, [sp, #-80]!
   83120:	910003fd 	mov	x29, sp
   83124:	f90017e0 	str	x0, [sp, #40]
   83128:	f90013e1 	str	x1, [sp, #32]
   8312c:	b9001fe2 	str	w2, [sp, #28]
   83130:	97ffffa4 	bl	82fc0 <cur_time>
   83134:	f9001be0 	str	x0, [sp, #48]
   83138:	d0000000 	adrp	x0, 85000 <main+0x83c>
   8313c:	f9448400 	ldr	x0, [x0, #2312]
   83140:	b9400001 	ldr	w1, [x0]
   83144:	d0000000 	adrp	x0, 85000 <main+0x83c>
   83148:	f9448802 	ldr	x2, [x0, #2320]
   8314c:	93407c21 	sxtw	x1, w1
   83150:	aa0103e0 	mov	x0, x1
   83154:	d37df000 	lsl	x0, x0, #3
   83158:	cb010000 	sub	x0, x0, x1
   8315c:	d37df000 	lsl	x0, x0, #3
   83160:	8b000040 	add	x0, x2, x0
   83164:	f94017e1 	ldr	x1, [sp, #40]
   83168:	f9001401 	str	x1, [x0, #40]
   8316c:	d0000000 	adrp	x0, 85000 <main+0x83c>
   83170:	f9448400 	ldr	x0, [x0, #2312]
   83174:	b9400001 	ldr	w1, [x0]
   83178:	d0000000 	adrp	x0, 85000 <main+0x83c>
   8317c:	f9448802 	ldr	x2, [x0, #2320]
   83180:	93407c21 	sxtw	x1, w1
   83184:	aa0103e0 	mov	x0, x1
   83188:	d37df000 	lsl	x0, x0, #3
   8318c:	cb010000 	sub	x0, x0, x1
   83190:	d37df000 	lsl	x0, x0, #3
   83194:	8b000040 	add	x0, x2, x0
   83198:	f9401be1 	ldr	x1, [sp, #48]
   8319c:	f9000001 	str	x1, [x0]
   831a0:	d0000000 	adrp	x0, 85000 <main+0x83c>
   831a4:	f9448400 	ldr	x0, [x0, #2312]
   831a8:	b9400001 	ldr	w1, [x0]
   831ac:	b9801fe2 	ldrsw	x2, [sp, #28]
   831b0:	d0000000 	adrp	x0, 85000 <main+0x83c>
   831b4:	f9448803 	ldr	x3, [x0, #2320]
   831b8:	93407c21 	sxtw	x1, w1
   831bc:	aa0103e0 	mov	x0, x1
   831c0:	d37df000 	lsl	x0, x0, #3
   831c4:	cb010000 	sub	x0, x0, x1
   831c8:	d37df000 	lsl	x0, x0, #3
   831cc:	8b000060 	add	x0, x3, x0
   831d0:	f9000402 	str	x2, [x0, #8]
   831d4:	b9004fff 	str	wzr, [sp, #76]
   831d8:	14000017 	b	83234 <add_timer+0x118>
   831dc:	b9804fe0 	ldrsw	x0, [sp, #76]
   831e0:	f94013e1 	ldr	x1, [sp, #32]
   831e4:	8b000020 	add	x0, x1, x0
   831e8:	d0000001 	adrp	x1, 85000 <main+0x83c>
   831ec:	f9448421 	ldr	x1, [x1, #2312]
   831f0:	b9400021 	ldr	w1, [x1]
   831f4:	39400004 	ldrb	w4, [x0]
   831f8:	d0000000 	adrp	x0, 85000 <main+0x83c>
   831fc:	f9448803 	ldr	x3, [x0, #2320]
   83200:	b9804fe2 	ldrsw	x2, [sp, #76]
   83204:	93407c21 	sxtw	x1, w1
   83208:	aa0103e0 	mov	x0, x1
   8320c:	d37df000 	lsl	x0, x0, #3
   83210:	cb010000 	sub	x0, x0, x1
   83214:	d37df000 	lsl	x0, x0, #3
   83218:	8b000060 	add	x0, x3, x0
   8321c:	8b020000 	add	x0, x0, x2
   83220:	2a0403e1 	mov	w1, w4
   83224:	39004001 	strb	w1, [x0, #16]
   83228:	b9404fe0 	ldr	w0, [sp, #76]
   8322c:	11000400 	add	w0, w0, #0x1
   83230:	b9004fe0 	str	w0, [sp, #76]
   83234:	b9404fe0 	ldr	w0, [sp, #76]
   83238:	71004c1f 	cmp	w0, #0x13
   8323c:	54fffd0d 	b.le	831dc <add_timer+0xc0>
   83240:	f90023ff 	str	xzr, [sp, #64]
   83244:	f9001fff 	str	xzr, [sp, #56]
   83248:	d0000000 	adrp	x0, 85000 <main+0x83c>
   8324c:	f944a400 	ldr	x0, [x0, #2376]
   83250:	f9400000 	ldr	x0, [x0]
   83254:	f9001fe0 	str	x0, [sp, #56]
   83258:	14000010 	b	83298 <add_timer+0x17c>
   8325c:	f9401fe0 	ldr	x0, [sp, #56]
   83260:	f9400001 	ldr	x1, [x0]
   83264:	f9401fe0 	ldr	x0, [sp, #56]
   83268:	f9400400 	ldr	x0, [x0, #8]
   8326c:	8b000021 	add	x1, x1, x0
   83270:	b9801fe2 	ldrsw	x2, [sp, #28]
   83274:	f9401be0 	ldr	x0, [sp, #48]
   83278:	8b000040 	add	x0, x2, x0
   8327c:	eb00003f 	cmp	x1, x0
   83280:	54000148 	b.hi	832a8 <add_timer+0x18c>  // b.pmore
   83284:	f9401fe0 	ldr	x0, [sp, #56]
   83288:	f90023e0 	str	x0, [sp, #64]
   8328c:	f9401fe0 	ldr	x0, [sp, #56]
   83290:	f9401800 	ldr	x0, [x0, #48]
   83294:	f9001fe0 	str	x0, [sp, #56]
   83298:	f9401fe0 	ldr	x0, [sp, #56]
   8329c:	f100001f 	cmp	x0, #0x0
   832a0:	54fffde1 	b.ne	8325c <add_timer+0x140>  // b.any
   832a4:	14000002 	b	832ac <add_timer+0x190>
   832a8:	d503201f 	nop
   832ac:	f94023e0 	ldr	x0, [sp, #64]
   832b0:	f100001f 	cmp	x0, #0x0
   832b4:	54000321 	b.ne	83318 <add_timer+0x1fc>  // b.any
   832b8:	f9401fe0 	ldr	x0, [sp, #56]
   832bc:	f100001f 	cmp	x0, #0x0
   832c0:	540002c1 	b.ne	83318 <add_timer+0x1fc>  // b.any
   832c4:	97ffff2d 	bl	82f78 <core_timer_enable>
   832c8:	d0000000 	adrp	x0, 85000 <main+0x83c>
   832cc:	f9448400 	ldr	x0, [x0, #2312]
   832d0:	b9400000 	ldr	w0, [x0]
   832d4:	93407c01 	sxtw	x1, w0
   832d8:	aa0103e0 	mov	x0, x1
   832dc:	d37df000 	lsl	x0, x0, #3
   832e0:	cb010000 	sub	x0, x0, x1
   832e4:	d37df000 	lsl	x0, x0, #3
   832e8:	d0000001 	adrp	x1, 85000 <main+0x83c>
   832ec:	f9448821 	ldr	x1, [x1, #2320]
   832f0:	8b010001 	add	x1, x0, x1
   832f4:	d0000000 	adrp	x0, 85000 <main+0x83c>
   832f8:	f944a400 	ldr	x0, [x0, #2376]
   832fc:	f9000001 	str	x1, [x0]
   83300:	d0000000 	adrp	x0, 85000 <main+0x83c>
   83304:	f944a400 	ldr	x0, [x0, #2376]
   83308:	f9400000 	ldr	x0, [x0]
   8330c:	f9400400 	ldr	x0, [x0, #8]
   83310:	97ffff49 	bl	83034 <set_next_timeout>
   83314:	1400005e 	b	8348c <add_timer+0x370>
   83318:	f94023e0 	ldr	x0, [sp, #64]
   8331c:	f100001f 	cmp	x0, #0x0
   83320:	54000240 	b.eq	83368 <add_timer+0x24c>  // b.none
   83324:	f9401fe0 	ldr	x0, [sp, #56]
   83328:	f100001f 	cmp	x0, #0x0
   8332c:	540001e1 	b.ne	83368 <add_timer+0x24c>  // b.any
   83330:	d0000000 	adrp	x0, 85000 <main+0x83c>
   83334:	f9448400 	ldr	x0, [x0, #2312]
   83338:	b9400000 	ldr	w0, [x0]
   8333c:	93407c01 	sxtw	x1, w0
   83340:	aa0103e0 	mov	x0, x1
   83344:	d37df000 	lsl	x0, x0, #3
   83348:	cb010000 	sub	x0, x0, x1
   8334c:	d37df000 	lsl	x0, x0, #3
   83350:	d0000001 	adrp	x1, 85000 <main+0x83c>
   83354:	f9448821 	ldr	x1, [x1, #2320]
   83358:	8b010001 	add	x1, x0, x1
   8335c:	f94023e0 	ldr	x0, [sp, #64]
   83360:	f9001801 	str	x1, [x0, #48]
   83364:	1400004a 	b	8348c <add_timer+0x370>
   83368:	f94023e0 	ldr	x0, [sp, #64]
   8336c:	f100001f 	cmp	x0, #0x0
   83370:	540005a1 	b.ne	83424 <add_timer+0x308>  // b.any
   83374:	f9401fe0 	ldr	x0, [sp, #56]
   83378:	f100001f 	cmp	x0, #0x0
   8337c:	54000540 	b.eq	83424 <add_timer+0x308>  // b.none
   83380:	d0000000 	adrp	x0, 85000 <main+0x83c>
   83384:	f9448400 	ldr	x0, [x0, #2312]
   83388:	b9400001 	ldr	w1, [x0]
   8338c:	d0000000 	adrp	x0, 85000 <main+0x83c>
   83390:	f9448802 	ldr	x2, [x0, #2320]
   83394:	93407c21 	sxtw	x1, w1
   83398:	aa0103e0 	mov	x0, x1
   8339c:	d37df000 	lsl	x0, x0, #3
   833a0:	cb010000 	sub	x0, x0, x1
   833a4:	d37df000 	lsl	x0, x0, #3
   833a8:	8b000040 	add	x0, x2, x0
   833ac:	f9401fe1 	ldr	x1, [sp, #56]
   833b0:	f9001801 	str	x1, [x0, #48]
   833b4:	d0000000 	adrp	x0, 85000 <main+0x83c>
   833b8:	f9448400 	ldr	x0, [x0, #2312]
   833bc:	b9400000 	ldr	w0, [x0]
   833c0:	93407c01 	sxtw	x1, w0
   833c4:	aa0103e0 	mov	x0, x1
   833c8:	d37df000 	lsl	x0, x0, #3
   833cc:	cb010000 	sub	x0, x0, x1
   833d0:	d37df000 	lsl	x0, x0, #3
   833d4:	d0000001 	adrp	x1, 85000 <main+0x83c>
   833d8:	f9448821 	ldr	x1, [x1, #2320]
   833dc:	8b010001 	add	x1, x0, x1
   833e0:	d0000000 	adrp	x0, 85000 <main+0x83c>
   833e4:	f944a400 	ldr	x0, [x0, #2376]
   833e8:	f9000001 	str	x1, [x0]
   833ec:	d0000000 	adrp	x0, 85000 <main+0x83c>
   833f0:	f9448400 	ldr	x0, [x0, #2312]
   833f4:	b9400001 	ldr	w1, [x0]
   833f8:	d0000000 	adrp	x0, 85000 <main+0x83c>
   833fc:	f9448802 	ldr	x2, [x0, #2320]
   83400:	93407c21 	sxtw	x1, w1
   83404:	aa0103e0 	mov	x0, x1
   83408:	d37df000 	lsl	x0, x0, #3
   8340c:	cb010000 	sub	x0, x0, x1
   83410:	d37df000 	lsl	x0, x0, #3
   83414:	8b000040 	add	x0, x2, x0
   83418:	f9400400 	ldr	x0, [x0, #8]
   8341c:	97ffff06 	bl	83034 <set_next_timeout>
   83420:	1400001b 	b	8348c <add_timer+0x370>
   83424:	d0000000 	adrp	x0, 85000 <main+0x83c>
   83428:	f9448400 	ldr	x0, [x0, #2312]
   8342c:	b9400001 	ldr	w1, [x0]
   83430:	d0000000 	adrp	x0, 85000 <main+0x83c>
   83434:	f9448802 	ldr	x2, [x0, #2320]
   83438:	93407c21 	sxtw	x1, w1
   8343c:	aa0103e0 	mov	x0, x1
   83440:	d37df000 	lsl	x0, x0, #3
   83444:	cb010000 	sub	x0, x0, x1
   83448:	d37df000 	lsl	x0, x0, #3
   8344c:	8b000040 	add	x0, x2, x0
   83450:	f9401fe1 	ldr	x1, [sp, #56]
   83454:	f9001801 	str	x1, [x0, #48]
   83458:	d0000000 	adrp	x0, 85000 <main+0x83c>
   8345c:	f9448400 	ldr	x0, [x0, #2312]
   83460:	b9400000 	ldr	w0, [x0]
   83464:	93407c01 	sxtw	x1, w0
   83468:	aa0103e0 	mov	x0, x1
   8346c:	d37df000 	lsl	x0, x0, #3
   83470:	cb010000 	sub	x0, x0, x1
   83474:	d37df000 	lsl	x0, x0, #3
   83478:	d0000001 	adrp	x1, 85000 <main+0x83c>
   8347c:	f9448821 	ldr	x1, [x1, #2320]
   83480:	8b010001 	add	x1, x0, x1
   83484:	f94023e0 	ldr	x0, [sp, #64]
   83488:	f9001801 	str	x1, [x0, #48]
   8348c:	d0000000 	adrp	x0, 85000 <main+0x83c>
   83490:	f9448400 	ldr	x0, [x0, #2312]
   83494:	b9400000 	ldr	w0, [x0]
   83498:	11000401 	add	w1, w0, #0x1
   8349c:	d0000000 	adrp	x0, 85000 <main+0x83c>
   834a0:	f9448400 	ldr	x0, [x0, #2312]
   834a4:	b9000001 	str	w1, [x0]
   834a8:	d0000000 	adrp	x0, 85000 <main+0x83c>
   834ac:	f9448400 	ldr	x0, [x0, #2312]
   834b0:	b9400000 	ldr	w0, [x0]
   834b4:	7100501f 	cmp	w0, #0x14
   834b8:	540000a1 	b.ne	834cc <add_timer+0x3b0>  // b.any
   834bc:	d0000000 	adrp	x0, 85000 <main+0x83c>
   834c0:	f9448400 	ldr	x0, [x0, #2312]
   834c4:	b900001f 	str	wzr, [x0]
   834c8:	d503201f 	nop
   834cc:	d503201f 	nop
   834d0:	a8c57bfd 	ldp	x29, x30, [sp], #80
   834d4:	d65f03c0 	ret

00000000000834d8 <timeout_handler>:
   834d8:	a9be7bfd 	stp	x29, x30, [sp, #-32]!
   834dc:	910003fd 	mov	x29, sp
   834e0:	d0000000 	adrp	x0, 85000 <main+0x83c>
   834e4:	f944a400 	ldr	x0, [x0, #2376]
   834e8:	f9400000 	ldr	x0, [x0]
   834ec:	f100001f 	cmp	x0, #0x0
   834f0:	54000061 	b.ne	834fc <timeout_handler+0x24>  // b.any
   834f4:	97fffeaa 	bl	82f9c <core_timer_disable>
   834f8:	14000034 	b	835c8 <timeout_handler+0xf0>
   834fc:	b0000000 	adrp	x0, 84000 <buddy_merge+0xb0>
   83500:	91374000 	add	x0, x0, #0xdd0
   83504:	97fffa20 	bl	81d84 <uart_puts>
   83508:	d0000000 	adrp	x0, 85000 <main+0x83c>
   8350c:	f944a400 	ldr	x0, [x0, #2376]
   83510:	f9400000 	ldr	x0, [x0]
   83514:	f9401401 	ldr	x1, [x0, #40]
   83518:	d0000000 	adrp	x0, 85000 <main+0x83c>
   8351c:	f944a400 	ldr	x0, [x0, #2376]
   83520:	f9400000 	ldr	x0, [x0]
   83524:	91004000 	add	x0, x0, #0x10
   83528:	d63f0020 	blr	x1
   8352c:	d0000000 	adrp	x0, 85000 <main+0x83c>
   83530:	f944a400 	ldr	x0, [x0, #2376]
   83534:	f9400000 	ldr	x0, [x0]
   83538:	f900001f 	str	xzr, [x0]
   8353c:	d0000000 	adrp	x0, 85000 <main+0x83c>
   83540:	f944a400 	ldr	x0, [x0, #2376]
   83544:	f9400000 	ldr	x0, [x0]
   83548:	f9401801 	ldr	x1, [x0, #48]
   8354c:	d0000000 	adrp	x0, 85000 <main+0x83c>
   83550:	f944a400 	ldr	x0, [x0, #2376]
   83554:	f9000001 	str	x1, [x0]
   83558:	d0000000 	adrp	x0, 85000 <main+0x83c>
   8355c:	f944a400 	ldr	x0, [x0, #2376]
   83560:	f9400000 	ldr	x0, [x0]
   83564:	f100001f 	cmp	x0, #0x0
   83568:	540002c0 	b.eq	835c0 <timeout_handler+0xe8>  // b.none
   8356c:	97fffe95 	bl	82fc0 <cur_time>
   83570:	f9000be0 	str	x0, [sp, #16]
   83574:	d0000000 	adrp	x0, 85000 <main+0x83c>
   83578:	f944a400 	ldr	x0, [x0, #2376]
   8357c:	f9400000 	ldr	x0, [x0]
   83580:	f9400001 	ldr	x1, [x0]
   83584:	d0000000 	adrp	x0, 85000 <main+0x83c>
   83588:	f944a400 	ldr	x0, [x0, #2376]
   8358c:	f9400000 	ldr	x0, [x0]
   83590:	f9400400 	ldr	x0, [x0, #8]
   83594:	8b000021 	add	x1, x1, x0
   83598:	f9400be0 	ldr	x0, [sp, #16]
   8359c:	cb000020 	sub	x0, x1, x0
   835a0:	f9000fe0 	str	x0, [sp, #24]
   835a4:	f9400fe0 	ldr	x0, [sp, #24]
   835a8:	f100001f 	cmp	x0, #0x0
   835ac:	54000041 	b.ne	835b4 <timeout_handler+0xdc>  // b.any
   835b0:	f9000fff 	str	xzr, [sp, #24]
   835b4:	f9400fe0 	ldr	x0, [sp, #24]
   835b8:	97fffe9f 	bl	83034 <set_next_timeout>
   835bc:	14000002 	b	835c4 <timeout_handler+0xec>
   835c0:	97fffe77 	bl	82f9c <core_timer_disable>
   835c4:	d503201f 	nop
   835c8:	a8c27bfd 	ldp	x29, x30, [sp], #32
   835cc:	d65f03c0 	ret

00000000000835d0 <print_timout_msg>:
   835d0:	a9be7bfd 	stp	x29, x30, [sp, #-32]!
   835d4:	910003fd 	mov	x29, sp
   835d8:	f9000fe0 	str	x0, [sp, #24]
   835dc:	b0000000 	adrp	x0, 84000 <buddy_merge+0xb0>
   835e0:	91376000 	add	x0, x0, #0xdd8
   835e4:	97fff9e8 	bl	81d84 <uart_puts>
   835e8:	d0000000 	adrp	x0, 85000 <main+0x83c>
   835ec:	f944a400 	ldr	x0, [x0, #2376]
   835f0:	f9400000 	ldr	x0, [x0]
   835f4:	f9400400 	ldr	x0, [x0, #8]
   835f8:	97fff9fa 	bl	81de0 <uart_hex>
   835fc:	b0000000 	adrp	x0, 84000 <buddy_merge+0xb0>
   83600:	91378000 	add	x0, x0, #0xde0
   83604:	97fff9e0 	bl	81d84 <uart_puts>
   83608:	d0000000 	adrp	x0, 85000 <main+0x83c>
   8360c:	f944a400 	ldr	x0, [x0, #2376]
   83610:	f9400000 	ldr	x0, [x0]
   83614:	f9400000 	ldr	x0, [x0]
   83618:	97fff9f2 	bl	81de0 <uart_hex>
   8361c:	b0000000 	adrp	x0, 84000 <buddy_merge+0xb0>
   83620:	9137e000 	add	x0, x0, #0xdf8
   83624:	97fff9d8 	bl	81d84 <uart_puts>
   83628:	f9400fe0 	ldr	x0, [sp, #24]
   8362c:	97fff9d6 	bl	81d84 <uart_puts>
   83630:	b0000000 	adrp	x0, 84000 <buddy_merge+0xb0>
   83634:	91374000 	add	x0, x0, #0xdd0
   83638:	97fff9d3 	bl	81d84 <uart_puts>
   8363c:	b0000000 	adrp	x0, 84000 <buddy_merge+0xb0>
   83640:	91380000 	add	x0, x0, #0xe00
   83644:	97fff9d0 	bl	81d84 <uart_puts>
   83648:	d503201f 	nop
   8364c:	a8c27bfd 	ldp	x29, x30, [sp], #32
   83650:	d65f03c0 	ret
   83654:	00000000 	.inst	0x00000000 ; undefined
   83658:	40000040 	.word	0x40000040
   8365c:	00000000 	.word	0x00000000

0000000000083660 <list_init>:
   83660:	d10043ff 	sub	sp, sp, #0x10
   83664:	f90007e0 	str	x0, [sp, #8]
   83668:	f94007e0 	ldr	x0, [sp, #8]
   8366c:	f94007e1 	ldr	x1, [sp, #8]
   83670:	f9000801 	str	x1, [x0, #16]
   83674:	f94007e0 	ldr	x0, [sp, #8]
   83678:	f94007e1 	ldr	x1, [sp, #8]
   8367c:	f9000401 	str	x1, [x0, #8]
   83680:	d503201f 	nop
   83684:	910043ff 	add	sp, sp, #0x10
   83688:	d65f03c0 	ret

000000000008368c <list_push>:
   8368c:	d10083ff 	sub	sp, sp, #0x20
   83690:	f90007e0 	str	x0, [sp, #8]
   83694:	f90003e1 	str	x1, [sp]
   83698:	f94007e0 	ldr	x0, [sp, #8]
   8369c:	f9400800 	ldr	x0, [x0, #16]
   836a0:	f9000fe0 	str	x0, [sp, #24]
   836a4:	f94003e0 	ldr	x0, [sp]
   836a8:	f9400fe1 	ldr	x1, [sp, #24]
   836ac:	f9000801 	str	x1, [x0, #16]
   836b0:	f94003e0 	ldr	x0, [sp]
   836b4:	f94007e1 	ldr	x1, [sp, #8]
   836b8:	f9000401 	str	x1, [x0, #8]
   836bc:	f9400fe0 	ldr	x0, [sp, #24]
   836c0:	f94003e1 	ldr	x1, [sp]
   836c4:	f9000401 	str	x1, [x0, #8]
   836c8:	f94007e0 	ldr	x0, [sp, #8]
   836cc:	f94003e1 	ldr	x1, [sp]
   836d0:	f9000801 	str	x1, [x0, #16]
   836d4:	d503201f 	nop
   836d8:	910083ff 	add	sp, sp, #0x20
   836dc:	d65f03c0 	ret

00000000000836e0 <list_remove>:
   836e0:	d10083ff 	sub	sp, sp, #0x20
   836e4:	f90007e0 	str	x0, [sp, #8]
   836e8:	f94007e0 	ldr	x0, [sp, #8]
   836ec:	f9400800 	ldr	x0, [x0, #16]
   836f0:	f9000fe0 	str	x0, [sp, #24]
   836f4:	f94007e0 	ldr	x0, [sp, #8]
   836f8:	f9400400 	ldr	x0, [x0, #8]
   836fc:	f9000be0 	str	x0, [sp, #16]
   83700:	f9400fe0 	ldr	x0, [sp, #24]
   83704:	f9400be1 	ldr	x1, [sp, #16]
   83708:	f9000401 	str	x1, [x0, #8]
   8370c:	f9400be0 	ldr	x0, [sp, #16]
   83710:	f9400fe1 	ldr	x1, [sp, #24]
   83714:	f9000801 	str	x1, [x0, #16]
   83718:	d503201f 	nop
   8371c:	910083ff 	add	sp, sp, #0x20
   83720:	d65f03c0 	ret

0000000000083724 <list_pop>:
   83724:	a9bd7bfd 	stp	x29, x30, [sp, #-48]!
   83728:	910003fd 	mov	x29, sp
   8372c:	f9000fe0 	str	x0, [sp, #24]
   83730:	f9400fe0 	ldr	x0, [sp, #24]
   83734:	f9400800 	ldr	x0, [x0, #16]
   83738:	f90017e0 	str	x0, [sp, #40]
   8373c:	f94017e1 	ldr	x1, [sp, #40]
   83740:	f9400fe0 	ldr	x0, [sp, #24]
   83744:	eb00003f 	cmp	x1, x0
   83748:	54000061 	b.ne	83754 <list_pop+0x30>  // b.any
   8374c:	d2800000 	mov	x0, #0x0                   	// #0
   83750:	14000004 	b	83760 <list_pop+0x3c>
   83754:	f94017e0 	ldr	x0, [sp, #40]
   83758:	97ffffe2 	bl	836e0 <list_remove>
   8375c:	f94017e0 	ldr	x0, [sp, #40]
   83760:	a8c37bfd 	ldp	x29, x30, [sp], #48
   83764:	d65f03c0 	ret

0000000000083768 <list_empty>:
   83768:	d10043ff 	sub	sp, sp, #0x10
   8376c:	f90007e0 	str	x0, [sp, #8]
   83770:	f94007e0 	ldr	x0, [sp, #8]
   83774:	f9400400 	ldr	x0, [x0, #8]
   83778:	f94007e1 	ldr	x1, [sp, #8]
   8377c:	eb00003f 	cmp	x1, x0
   83780:	1a9f17e0 	cset	w0, eq  // eq = none
   83784:	12001c00 	and	w0, w0, #0xff
   83788:	910043ff 	add	sp, sp, #0x10
   8378c:	d65f03c0 	ret

0000000000083790 <page_info>:
   83790:	a9be7bfd 	stp	x29, x30, [sp, #-32]!
   83794:	910003fd 	mov	x29, sp
   83798:	b9001fe0 	str	w0, [sp, #28]
   8379c:	d0000000 	adrp	x0, 85000 <main+0x83c>
   837a0:	f944a802 	ldr	x2, [x0, #2384]
   837a4:	b9801fe1 	ldrsw	x1, [sp, #28]
   837a8:	aa0103e0 	mov	x0, x1
   837ac:	d37ef400 	lsl	x0, x0, #2
   837b0:	8b010000 	add	x0, x0, x1
   837b4:	d37df000 	lsl	x0, x0, #3
   837b8:	8b000040 	add	x0, x2, x0
   837bc:	b9401c00 	ldr	w0, [x0, #28]
   837c0:	97fff988 	bl	81de0 <uart_hex>
   837c4:	d503201f 	nop
   837c8:	a8c27bfd 	ldp	x29, x30, [sp], #32
   837cc:	d65f03c0 	ret

00000000000837d0 <buddy_init>:
   837d0:	d10043ff 	sub	sp, sp, #0x10
   837d4:	b9000fff 	str	wzr, [sp, #12]
   837d8:	14000022 	b	83860 <buddy_init+0x90>
   837dc:	b9800fe0 	ldrsw	x0, [sp, #12]
   837e0:	d37be801 	lsl	x1, x0, #5
   837e4:	d0000000 	adrp	x0, 85000 <main+0x83c>
   837e8:	f944b800 	ldr	x0, [x0, #2416]
   837ec:	8b000020 	add	x0, x1, x0
   837f0:	91002001 	add	x1, x0, #0x8
   837f4:	d0000000 	adrp	x0, 85000 <main+0x83c>
   837f8:	f944b802 	ldr	x2, [x0, #2416]
   837fc:	b9800fe0 	ldrsw	x0, [sp, #12]
   83800:	d37be800 	lsl	x0, x0, #5
   83804:	8b000040 	add	x0, x2, x0
   83808:	f9000801 	str	x1, [x0, #16]
   8380c:	b9800fe0 	ldrsw	x0, [sp, #12]
   83810:	d37be801 	lsl	x1, x0, #5
   83814:	d0000000 	adrp	x0, 85000 <main+0x83c>
   83818:	f944b800 	ldr	x0, [x0, #2416]
   8381c:	8b000020 	add	x0, x1, x0
   83820:	91002001 	add	x1, x0, #0x8
   83824:	d0000000 	adrp	x0, 85000 <main+0x83c>
   83828:	f944b802 	ldr	x2, [x0, #2416]
   8382c:	b9800fe0 	ldrsw	x0, [sp, #12]
   83830:	d37be800 	lsl	x0, x0, #5
   83834:	8b000040 	add	x0, x2, x0
   83838:	f9000c01 	str	x1, [x0, #24]
   8383c:	d0000000 	adrp	x0, 85000 <main+0x83c>
   83840:	f944b801 	ldr	x1, [x0, #2416]
   83844:	b9800fe0 	ldrsw	x0, [sp, #12]
   83848:	d37be800 	lsl	x0, x0, #5
   8384c:	8b000020 	add	x0, x1, x0
   83850:	b900001f 	str	wzr, [x0]
   83854:	b9400fe0 	ldr	w0, [sp, #12]
   83858:	11000400 	add	w0, w0, #0x1
   8385c:	b9000fe0 	str	w0, [sp, #12]
   83860:	b9400fe0 	ldr	w0, [sp, #12]
   83864:	7100201f 	cmp	w0, #0x8
   83868:	54fffbad 	b.le	837dc <buddy_init+0xc>
   8386c:	d503201f 	nop
   83870:	d503201f 	nop
   83874:	910043ff 	add	sp, sp, #0x10
   83878:	d65f03c0 	ret

000000000008387c <page_init>:
   8387c:	a9be7bfd 	stp	x29, x30, [sp, #-32]!
   83880:	910003fd 	mov	x29, sp
   83884:	52800100 	mov	w0, #0x8                   	// #8
   83888:	b9001fe0 	str	w0, [sp, #28]
   8388c:	b9001bff 	str	wzr, [sp, #24]
   83890:	b90017ff 	str	wzr, [sp, #20]
   83894:	1400007a 	b	83a7c <page_init+0x200>
   83898:	b9401be0 	ldr	w0, [sp, #24]
   8389c:	7100001f 	cmp	w0, #0x0
   838a0:	54000680 	b.eq	83970 <page_init+0xf4>  // b.none
   838a4:	d0000000 	adrp	x0, 85000 <main+0x83c>
   838a8:	f944a802 	ldr	x2, [x0, #2384]
   838ac:	b98017e1 	ldrsw	x1, [sp, #20]
   838b0:	aa0103e0 	mov	x0, x1
   838b4:	d37ef400 	lsl	x0, x0, #2
   838b8:	8b010000 	add	x0, x0, x1
   838bc:	d37df000 	lsl	x0, x0, #3
   838c0:	8b000040 	add	x0, x2, x0
   838c4:	b94017e1 	ldr	w1, [sp, #20]
   838c8:	b9002001 	str	w1, [x0, #32]
   838cc:	d0000000 	adrp	x0, 85000 <main+0x83c>
   838d0:	f944a802 	ldr	x2, [x0, #2384]
   838d4:	b98017e1 	ldrsw	x1, [sp, #20]
   838d8:	aa0103e0 	mov	x0, x1
   838dc:	d37ef400 	lsl	x0, x0, #2
   838e0:	8b010000 	add	x0, x0, x1
   838e4:	d37df000 	lsl	x0, x0, #3
   838e8:	8b000040 	add	x0, x2, x0
   838ec:	b900181f 	str	wzr, [x0, #24]
   838f0:	d0000000 	adrp	x0, 85000 <main+0x83c>
   838f4:	f944a802 	ldr	x2, [x0, #2384]
   838f8:	b98017e1 	ldrsw	x1, [sp, #20]
   838fc:	aa0103e0 	mov	x0, x1
   83900:	d37ef400 	lsl	x0, x0, #2
   83904:	8b010000 	add	x0, x0, x1
   83908:	d37df000 	lsl	x0, x0, #3
   8390c:	8b000040 	add	x0, x2, x0
   83910:	12800001 	mov	w1, #0xffffffff            	// #-1
   83914:	b9001c01 	str	w1, [x0, #28]
   83918:	d0000000 	adrp	x0, 85000 <main+0x83c>
   8391c:	f944a802 	ldr	x2, [x0, #2384]
   83920:	b98017e1 	ldrsw	x1, [sp, #20]
   83924:	aa0103e0 	mov	x0, x1
   83928:	d37ef400 	lsl	x0, x0, #2
   8392c:	8b010000 	add	x0, x0, x1
   83930:	d37df000 	lsl	x0, x0, #3
   83934:	8b000040 	add	x0, x2, x0
   83938:	f900041f 	str	xzr, [x0, #8]
   8393c:	d0000000 	adrp	x0, 85000 <main+0x83c>
   83940:	f944a802 	ldr	x2, [x0, #2384]
   83944:	b98017e1 	ldrsw	x1, [sp, #20]
   83948:	aa0103e0 	mov	x0, x1
   8394c:	d37ef400 	lsl	x0, x0, #2
   83950:	8b010000 	add	x0, x0, x1
   83954:	d37df000 	lsl	x0, x0, #3
   83958:	8b000040 	add	x0, x2, x0
   8395c:	f900081f 	str	xzr, [x0, #16]
   83960:	b9401be0 	ldr	w0, [sp, #24]
   83964:	51000400 	sub	w0, w0, #0x1
   83968:	b9001be0 	str	w0, [sp, #24]
   8396c:	14000041 	b	83a70 <page_init+0x1f4>
   83970:	b9401fe0 	ldr	w0, [sp, #28]
   83974:	52800021 	mov	w1, #0x1                   	// #1
   83978:	1ac02021 	lsl	w1, w1, w0
   8397c:	b94017e0 	ldr	w0, [sp, #20]
   83980:	0b000020 	add	w0, w1, w0
   83984:	7140041f 	cmp	w0, #0x1, lsl #12
   83988:	5400068c 	b.gt	83a58 <page_init+0x1dc>
   8398c:	d0000000 	adrp	x0, 85000 <main+0x83c>
   83990:	f944a802 	ldr	x2, [x0, #2384]
   83994:	b98017e1 	ldrsw	x1, [sp, #20]
   83998:	aa0103e0 	mov	x0, x1
   8399c:	d37ef400 	lsl	x0, x0, #2
   839a0:	8b010000 	add	x0, x0, x1
   839a4:	d37df000 	lsl	x0, x0, #3
   839a8:	8b000040 	add	x0, x2, x0
   839ac:	b94017e1 	ldr	w1, [sp, #20]
   839b0:	b9002001 	str	w1, [x0, #32]
   839b4:	d0000000 	adrp	x0, 85000 <main+0x83c>
   839b8:	f944a802 	ldr	x2, [x0, #2384]
   839bc:	b98017e1 	ldrsw	x1, [sp, #20]
   839c0:	aa0103e0 	mov	x0, x1
   839c4:	d37ef400 	lsl	x0, x0, #2
   839c8:	8b010000 	add	x0, x0, x1
   839cc:	d37df000 	lsl	x0, x0, #3
   839d0:	8b000040 	add	x0, x2, x0
   839d4:	b900181f 	str	wzr, [x0, #24]
   839d8:	d0000000 	adrp	x0, 85000 <main+0x83c>
   839dc:	f944a802 	ldr	x2, [x0, #2384]
   839e0:	b98017e1 	ldrsw	x1, [sp, #20]
   839e4:	aa0103e0 	mov	x0, x1
   839e8:	d37ef400 	lsl	x0, x0, #2
   839ec:	8b010000 	add	x0, x0, x1
   839f0:	d37df000 	lsl	x0, x0, #3
   839f4:	8b000040 	add	x0, x2, x0
   839f8:	b9401fe1 	ldr	w1, [sp, #28]
   839fc:	b9001c01 	str	w1, [x0, #28]
   83a00:	b9801fe0 	ldrsw	x0, [sp, #28]
   83a04:	d37be801 	lsl	x1, x0, #5
   83a08:	d0000000 	adrp	x0, 85000 <main+0x83c>
   83a0c:	f944b800 	ldr	x0, [x0, #2416]
   83a10:	8b000022 	add	x2, x1, x0
   83a14:	b98017e1 	ldrsw	x1, [sp, #20]
   83a18:	aa0103e0 	mov	x0, x1
   83a1c:	d37ef400 	lsl	x0, x0, #2
   83a20:	8b010000 	add	x0, x0, x1
   83a24:	d37df000 	lsl	x0, x0, #3
   83a28:	d0000001 	adrp	x1, 85000 <main+0x83c>
   83a2c:	f944a821 	ldr	x1, [x1, #2384]
   83a30:	8b010000 	add	x0, x0, x1
   83a34:	aa0003e1 	mov	x1, x0
   83a38:	aa0203e0 	mov	x0, x2
   83a3c:	94000030 	bl	83afc <buddy_push>
   83a40:	b9401fe0 	ldr	w0, [sp, #28]
   83a44:	52800021 	mov	w1, #0x1                   	// #1
   83a48:	1ac02020 	lsl	w0, w1, w0
   83a4c:	51000400 	sub	w0, w0, #0x1
   83a50:	b9001be0 	str	w0, [sp, #24]
   83a54:	14000007 	b	83a70 <page_init+0x1f4>
   83a58:	b9401fe0 	ldr	w0, [sp, #28]
   83a5c:	51000400 	sub	w0, w0, #0x1
   83a60:	b9001fe0 	str	w0, [sp, #28]
   83a64:	b94017e0 	ldr	w0, [sp, #20]
   83a68:	51000400 	sub	w0, w0, #0x1
   83a6c:	b90017e0 	str	w0, [sp, #20]
   83a70:	b94017e0 	ldr	w0, [sp, #20]
   83a74:	11000400 	add	w0, w0, #0x1
   83a78:	b90017e0 	str	w0, [sp, #20]
   83a7c:	b94017e0 	ldr	w0, [sp, #20]
   83a80:	713ffc1f 	cmp	w0, #0xfff
   83a84:	54fff0ad 	b.le	83898 <page_init+0x1c>
   83a88:	d503201f 	nop
   83a8c:	d503201f 	nop
   83a90:	a8c27bfd 	ldp	x29, x30, [sp], #32
   83a94:	d65f03c0 	ret

0000000000083a98 <mm_init>:
   83a98:	a9be7bfd 	stp	x29, x30, [sp, #-32]!
   83a9c:	910003fd 	mov	x29, sp
   83aa0:	97ffff4c 	bl	837d0 <buddy_init>
   83aa4:	97ffff76 	bl	8387c <page_init>
   83aa8:	b9001fff 	str	wzr, [sp, #28]
   83aac:	1400000d 	b	83ae0 <mm_init+0x48>
   83ab0:	d0000000 	adrp	x0, 85000 <main+0x83c>
   83ab4:	f9447402 	ldr	x2, [x0, #2280]
   83ab8:	b9801fe1 	ldrsw	x1, [sp, #28]
   83abc:	aa0103e0 	mov	x0, x1
   83ac0:	d37ef400 	lsl	x0, x0, #2
   83ac4:	8b010000 	add	x0, x0, x1
   83ac8:	d37be800 	lsl	x0, x0, #5
   83acc:	8b000040 	add	x0, x2, x0
   83ad0:	b900001f 	str	wzr, [x0]
   83ad4:	b9401fe0 	ldr	w0, [sp, #28]
   83ad8:	11000400 	add	w0, w0, #0x1
   83adc:	b9001fe0 	str	w0, [sp, #28]
   83ae0:	b9401fe0 	ldr	w0, [sp, #28]
   83ae4:	71007c1f 	cmp	w0, #0x1f
   83ae8:	54fffe4d 	b.le	83ab0 <mm_init+0x18>
   83aec:	d503201f 	nop
   83af0:	d503201f 	nop
   83af4:	a8c27bfd 	ldp	x29, x30, [sp], #32
   83af8:	d65f03c0 	ret

0000000000083afc <buddy_push>:
   83afc:	d10043ff 	sub	sp, sp, #0x10
   83b00:	f90007e0 	str	x0, [sp, #8]
   83b04:	f90003e1 	str	x1, [sp]
   83b08:	f94007e0 	ldr	x0, [sp, #8]
   83b0c:	b9400000 	ldr	w0, [x0]
   83b10:	11000401 	add	w1, w0, #0x1
   83b14:	f94007e0 	ldr	x0, [sp, #8]
   83b18:	b9000001 	str	w1, [x0]
   83b1c:	f94007e0 	ldr	x0, [sp, #8]
   83b20:	91002001 	add	x1, x0, #0x8
   83b24:	f94003e0 	ldr	x0, [sp]
   83b28:	f9000401 	str	x1, [x0, #8]
   83b2c:	f94007e0 	ldr	x0, [sp, #8]
   83b30:	f9400c01 	ldr	x1, [x0, #24]
   83b34:	f94003e0 	ldr	x0, [sp]
   83b38:	f9000801 	str	x1, [x0, #16]
   83b3c:	f94007e0 	ldr	x0, [sp, #8]
   83b40:	f9400c00 	ldr	x0, [x0, #24]
   83b44:	f94003e1 	ldr	x1, [sp]
   83b48:	f9000401 	str	x1, [x0, #8]
   83b4c:	f94007e0 	ldr	x0, [sp, #8]
   83b50:	f94003e1 	ldr	x1, [sp]
   83b54:	f9000c01 	str	x1, [x0, #24]
   83b58:	d503201f 	nop
   83b5c:	910043ff 	add	sp, sp, #0x10
   83b60:	d65f03c0 	ret

0000000000083b64 <buddy_remove>:
   83b64:	d10043ff 	sub	sp, sp, #0x10
   83b68:	f90007e0 	str	x0, [sp, #8]
   83b6c:	f90003e1 	str	x1, [sp]
   83b70:	f94007e0 	ldr	x0, [sp, #8]
   83b74:	b9400000 	ldr	w0, [x0]
   83b78:	51000401 	sub	w1, w0, #0x1
   83b7c:	f94007e0 	ldr	x0, [sp, #8]
   83b80:	b9000001 	str	w1, [x0]
   83b84:	f94003e0 	ldr	x0, [sp]
   83b88:	f9400800 	ldr	x0, [x0, #16]
   83b8c:	f94003e1 	ldr	x1, [sp]
   83b90:	f9400421 	ldr	x1, [x1, #8]
   83b94:	f9000401 	str	x1, [x0, #8]
   83b98:	f94003e0 	ldr	x0, [sp]
   83b9c:	f9400400 	ldr	x0, [x0, #8]
   83ba0:	f94003e1 	ldr	x1, [sp]
   83ba4:	f9400821 	ldr	x1, [x1, #16]
   83ba8:	f9000801 	str	x1, [x0, #16]
   83bac:	f94003e0 	ldr	x0, [sp]
   83bb0:	f900041f 	str	xzr, [x0, #8]
   83bb4:	f94003e0 	ldr	x0, [sp]
   83bb8:	f900081f 	str	xzr, [x0, #16]
   83bbc:	d503201f 	nop
   83bc0:	910043ff 	add	sp, sp, #0x10
   83bc4:	d65f03c0 	ret

0000000000083bc8 <buddy_alloc>:
   83bc8:	a9bc7bfd 	stp	x29, x30, [sp, #-64]!
   83bcc:	910003fd 	mov	x29, sp
   83bd0:	b9001fe0 	str	w0, [sp, #28]
   83bd4:	b9401fe0 	ldr	w0, [sp, #28]
   83bd8:	b9003fe0 	str	w0, [sp, #60]
   83bdc:	14000031 	b	83ca0 <buddy_alloc+0xd8>
   83be0:	d0000000 	adrp	x0, 85000 <main+0x83c>
   83be4:	f944b801 	ldr	x1, [x0, #2416]
   83be8:	b9803fe0 	ldrsw	x0, [sp, #60]
   83bec:	d37be800 	lsl	x0, x0, #5
   83bf0:	8b000020 	add	x0, x1, x0
   83bf4:	b9400000 	ldr	w0, [x0]
   83bf8:	7100001f 	cmp	w0, #0x0
   83bfc:	540004c0 	b.eq	83c94 <buddy_alloc+0xcc>  // b.none
   83c00:	b9803fe0 	ldrsw	x0, [sp, #60]
   83c04:	d37be801 	lsl	x1, x0, #5
   83c08:	d0000000 	adrp	x0, 85000 <main+0x83c>
   83c0c:	f944b800 	ldr	x0, [x0, #2416]
   83c10:	8b000020 	add	x0, x1, x0
   83c14:	b9401fe1 	ldr	w1, [sp, #28]
   83c18:	94000043 	bl	83d24 <buddy_pop>
   83c1c:	f9001be0 	str	x0, [sp, #48]
   83c20:	f9401be0 	ldr	x0, [sp, #48]
   83c24:	b9402000 	ldr	w0, [x0, #32]
   83c28:	11400400 	add	w0, w0, #0x1, lsl #12
   83c2c:	53144c00 	lsl	w0, w0, #12
   83c30:	93407c00 	sxtw	x0, w0
   83c34:	f90017e0 	str	x0, [sp, #40]
   83c38:	b0000000 	adrp	x0, 84000 <buddy_merge+0xb0>
   83c3c:	91382000 	add	x0, x0, #0xe08
   83c40:	97fff851 	bl	81d84 <uart_puts>
   83c44:	f94017e0 	ldr	x0, [sp, #40]
   83c48:	97fff866 	bl	81de0 <uart_hex>
   83c4c:	b0000000 	adrp	x0, 84000 <buddy_merge+0xb0>
   83c50:	91388000 	add	x0, x0, #0xe20
   83c54:	97fff84c 	bl	81d84 <uart_puts>
   83c58:	f9401be0 	ldr	x0, [sp, #48]
   83c5c:	b9401c00 	ldr	w0, [x0, #28]
   83c60:	52820001 	mov	w1, #0x1000                	// #4096
   83c64:	1ac02020 	lsl	w0, w1, w0
   83c68:	93407c00 	sxtw	x0, w0
   83c6c:	f94017e1 	ldr	x1, [sp, #40]
   83c70:	8b000020 	add	x0, x1, x0
   83c74:	f90013e0 	str	x0, [sp, #32]
   83c78:	f94013e0 	ldr	x0, [sp, #32]
   83c7c:	97fff859 	bl	81de0 <uart_hex>
   83c80:	b0000000 	adrp	x0, 84000 <buddy_merge+0xb0>
   83c84:	9138a000 	add	x0, x0, #0xe28
   83c88:	97fff83f 	bl	81d84 <uart_puts>
   83c8c:	f94017e0 	ldr	x0, [sp, #40]
   83c90:	14000008 	b	83cb0 <buddy_alloc+0xe8>
   83c94:	b9403fe0 	ldr	w0, [sp, #60]
   83c98:	11000400 	add	w0, w0, #0x1
   83c9c:	b9003fe0 	str	w0, [sp, #60]
   83ca0:	b9403fe0 	ldr	w0, [sp, #60]
   83ca4:	7100201f 	cmp	w0, #0x8
   83ca8:	54fff9cd 	b.le	83be0 <buddy_alloc+0x18>
   83cac:	d2800000 	mov	x0, #0x0                   	// #0
   83cb0:	a8c47bfd 	ldp	x29, x30, [sp], #64
   83cb4:	d65f03c0 	ret

0000000000083cb8 <buddy_info>:
   83cb8:	a9be7bfd 	stp	x29, x30, [sp, #-32]!
   83cbc:	910003fd 	mov	x29, sp
   83cc0:	b0000000 	adrp	x0, 84000 <buddy_merge+0xb0>
   83cc4:	9138c000 	add	x0, x0, #0xe30
   83cc8:	97fff82f 	bl	81d84 <uart_puts>
   83ccc:	b9001fff 	str	wzr, [sp, #28]
   83cd0:	1400000e 	b	83d08 <buddy_info+0x50>
   83cd4:	d0000000 	adrp	x0, 85000 <main+0x83c>
   83cd8:	f944b801 	ldr	x1, [x0, #2416]
   83cdc:	b9801fe0 	ldrsw	x0, [sp, #28]
   83ce0:	d37be800 	lsl	x0, x0, #5
   83ce4:	8b000020 	add	x0, x1, x0
   83ce8:	b9400000 	ldr	w0, [x0]
   83cec:	97fff83d 	bl	81de0 <uart_hex>
   83cf0:	b0000000 	adrp	x0, 84000 <buddy_merge+0xb0>
   83cf4:	9138a000 	add	x0, x0, #0xe28
   83cf8:	97fff823 	bl	81d84 <uart_puts>
   83cfc:	b9401fe0 	ldr	w0, [sp, #28]
   83d00:	11000400 	add	w0, w0, #0x1
   83d04:	b9001fe0 	str	w0, [sp, #28]
   83d08:	b9401fe0 	ldr	w0, [sp, #28]
   83d0c:	7100201f 	cmp	w0, #0x8
   83d10:	54fffe2d 	b.le	83cd4 <buddy_info+0x1c>
   83d14:	d503201f 	nop
   83d18:	d503201f 	nop
   83d1c:	a8c27bfd 	ldp	x29, x30, [sp], #32
   83d20:	d65f03c0 	ret

0000000000083d24 <buddy_pop>:
   83d24:	a9bd7bfd 	stp	x29, x30, [sp, #-48]!
   83d28:	910003fd 	mov	x29, sp
   83d2c:	f9000fe0 	str	x0, [sp, #24]
   83d30:	b90017e1 	str	w1, [sp, #20]
   83d34:	f9400fe0 	ldr	x0, [sp, #24]
   83d38:	b9400000 	ldr	w0, [x0]
   83d3c:	7100001f 	cmp	w0, #0x0
   83d40:	54000061 	b.ne	83d4c <buddy_pop+0x28>  // b.any
   83d44:	d2800000 	mov	x0, #0x0                   	// #0
   83d48:	1400001a 	b	83db0 <buddy_pop+0x8c>
   83d4c:	f9400fe0 	ldr	x0, [sp, #24]
   83d50:	b9400000 	ldr	w0, [x0]
   83d54:	51000401 	sub	w1, w0, #0x1
   83d58:	f9400fe0 	ldr	x0, [sp, #24]
   83d5c:	b9000001 	str	w1, [x0]
   83d60:	f9400fe0 	ldr	x0, [sp, #24]
   83d64:	f9400800 	ldr	x0, [x0, #16]
   83d68:	f90017e0 	str	x0, [sp, #40]
   83d6c:	f94017e0 	ldr	x0, [sp, #40]
   83d70:	f9400400 	ldr	x0, [x0, #8]
   83d74:	f94017e1 	ldr	x1, [sp, #40]
   83d78:	f9400821 	ldr	x1, [x1, #16]
   83d7c:	f9000801 	str	x1, [x0, #16]
   83d80:	f94017e0 	ldr	x0, [sp, #40]
   83d84:	f9400800 	ldr	x0, [x0, #16]
   83d88:	f94017e1 	ldr	x1, [sp, #40]
   83d8c:	f9400421 	ldr	x1, [x1, #8]
   83d90:	f9000401 	str	x1, [x0, #8]
   83d94:	f94017e0 	ldr	x0, [sp, #40]
   83d98:	f900041f 	str	xzr, [x0, #8]
   83d9c:	f94017e0 	ldr	x0, [sp, #40]
   83da0:	f900081f 	str	xzr, [x0, #16]
   83da4:	b94017e1 	ldr	w1, [sp, #20]
   83da8:	f94017e0 	ldr	x0, [sp, #40]
   83dac:	94000003 	bl	83db8 <release_redundant>
   83db0:	a8c37bfd 	ldp	x29, x30, [sp], #48
   83db4:	d65f03c0 	ret

0000000000083db8 <release_redundant>:
   83db8:	a9bc7bfd 	stp	x29, x30, [sp, #-64]!
   83dbc:	910003fd 	mov	x29, sp
   83dc0:	f9000fe0 	str	x0, [sp, #24]
   83dc4:	b90017e1 	str	w1, [sp, #20]
   83dc8:	b0000000 	adrp	x0, 84000 <buddy_merge+0xb0>
   83dcc:	91394000 	add	x0, x0, #0xe50
   83dd0:	97fff7ed 	bl	81d84 <uart_puts>
   83dd4:	f9400fe0 	ldr	x0, [sp, #24]
   83dd8:	b9402000 	ldr	w0, [x0, #32]
   83ddc:	97fffe6d 	bl	83790 <page_info>
   83de0:	b0000000 	adrp	x0, 84000 <buddy_merge+0xb0>
   83de4:	91398000 	add	x0, x0, #0xe60
   83de8:	97fff7e7 	bl	81d84 <uart_puts>
   83dec:	b94017e0 	ldr	w0, [sp, #20]
   83df0:	97fff7fc 	bl	81de0 <uart_hex>
   83df4:	b0000000 	adrp	x0, 84000 <buddy_merge+0xb0>
   83df8:	9138a000 	add	x0, x0, #0xe28
   83dfc:	97fff7e2 	bl	81d84 <uart_puts>
   83e00:	f9400fe0 	ldr	x0, [sp, #24]
   83e04:	b9401c00 	ldr	w0, [x0, #28]
   83e08:	b9003be0 	str	w0, [sp, #56]
   83e0c:	b9403be1 	ldr	w1, [sp, #56]
   83e10:	b94017e0 	ldr	w0, [sp, #20]
   83e14:	6b00003f 	cmp	w1, w0
   83e18:	5400046d 	b.le	83ea4 <release_redundant+0xec>
   83e1c:	b9403be0 	ldr	w0, [sp, #56]
   83e20:	51000400 	sub	w0, w0, #0x1
   83e24:	b90037e0 	str	w0, [sp, #52]
   83e28:	f9400fe0 	ldr	x0, [sp, #24]
   83e2c:	f90017e0 	str	x0, [sp, #40]
   83e30:	b94037e0 	ldr	w0, [sp, #52]
   83e34:	52800021 	mov	w1, #0x1                   	// #1
   83e38:	1ac02020 	lsl	w0, w1, w0
   83e3c:	93407c01 	sxtw	x1, w0
   83e40:	aa0103e0 	mov	x0, x1
   83e44:	d37ef400 	lsl	x0, x0, #2
   83e48:	8b010000 	add	x0, x0, x1
   83e4c:	d37df000 	lsl	x0, x0, #3
   83e50:	aa0003e1 	mov	x1, x0
   83e54:	f9400fe0 	ldr	x0, [sp, #24]
   83e58:	8b010000 	add	x0, x0, x1
   83e5c:	f90013e0 	str	x0, [sp, #32]
   83e60:	f94017e0 	ldr	x0, [sp, #40]
   83e64:	b94037e1 	ldr	w1, [sp, #52]
   83e68:	b9001c01 	str	w1, [x0, #28]
   83e6c:	f94013e0 	ldr	x0, [sp, #32]
   83e70:	b94037e1 	ldr	w1, [sp, #52]
   83e74:	b9001c01 	str	w1, [x0, #28]
   83e78:	b98037e0 	ldrsw	x0, [sp, #52]
   83e7c:	d37be801 	lsl	x1, x0, #5
   83e80:	d0000000 	adrp	x0, 85000 <main+0x83c>
   83e84:	f944b800 	ldr	x0, [x0, #2416]
   83e88:	8b000020 	add	x0, x1, x0
   83e8c:	f94017e1 	ldr	x1, [sp, #40]
   83e90:	97ffff1b 	bl	83afc <buddy_push>
   83e94:	b94017e1 	ldr	w1, [sp, #20]
   83e98:	f94013e0 	ldr	x0, [sp, #32]
   83e9c:	97ffffc7 	bl	83db8 <release_redundant>
   83ea0:	14000017 	b	83efc <release_redundant+0x144>
   83ea4:	b9003fff 	str	wzr, [sp, #60]
   83ea8:	1400000e 	b	83ee0 <release_redundant+0x128>
   83eac:	b9803fe1 	ldrsw	x1, [sp, #60]
   83eb0:	aa0103e0 	mov	x0, x1
   83eb4:	d37ef400 	lsl	x0, x0, #2
   83eb8:	8b010000 	add	x0, x0, x1
   83ebc:	d37df000 	lsl	x0, x0, #3
   83ec0:	aa0003e1 	mov	x1, x0
   83ec4:	f9400fe0 	ldr	x0, [sp, #24]
   83ec8:	8b010000 	add	x0, x0, x1
   83ecc:	52800021 	mov	w1, #0x1                   	// #1
   83ed0:	b9001801 	str	w1, [x0, #24]
   83ed4:	b9403fe0 	ldr	w0, [sp, #60]
   83ed8:	11000400 	add	w0, w0, #0x1
   83edc:	b9003fe0 	str	w0, [sp, #60]
   83ee0:	b94017e0 	ldr	w0, [sp, #20]
   83ee4:	52800021 	mov	w1, #0x1                   	// #1
   83ee8:	1ac02020 	lsl	w0, w1, w0
   83eec:	b9403fe1 	ldr	w1, [sp, #60]
   83ef0:	6b00003f 	cmp	w1, w0
   83ef4:	54fffdcb 	b.lt	83eac <release_redundant+0xf4>  // b.tstop
   83ef8:	f9400fe0 	ldr	x0, [sp, #24]
   83efc:	a8c47bfd 	ldp	x29, x30, [sp], #64
   83f00:	d65f03c0 	ret

0000000000083f04 <find_buddy>:
   83f04:	d10083ff 	sub	sp, sp, #0x20
   83f08:	b9000fe0 	str	w0, [sp, #12]
   83f0c:	b9000be1 	str	w1, [sp, #8]
   83f10:	b9400be0 	ldr	w0, [sp, #8]
   83f14:	52800021 	mov	w1, #0x1                   	// #1
   83f18:	1ac02020 	lsl	w0, w1, w0
   83f1c:	b9400fe1 	ldr	w1, [sp, #12]
   83f20:	4a000020 	eor	w0, w1, w0
   83f24:	b9001fe0 	str	w0, [sp, #28]
   83f28:	b9801fe1 	ldrsw	x1, [sp, #28]
   83f2c:	aa0103e0 	mov	x0, x1
   83f30:	d37ef400 	lsl	x0, x0, #2
   83f34:	8b010000 	add	x0, x0, x1
   83f38:	d37df000 	lsl	x0, x0, #3
   83f3c:	d0000001 	adrp	x1, 85000 <main+0x83c>
   83f40:	f944a821 	ldr	x1, [x1, #2384]
   83f44:	8b010000 	add	x0, x0, x1
   83f48:	910083ff 	add	sp, sp, #0x20
   83f4c:	d65f03c0 	ret

0000000000083f50 <buddy_merge>:
   83f50:	a9bc7bfd 	stp	x29, x30, [sp, #-64]!
   83f54:	910003fd 	mov	x29, sp
   83f58:	f90017e0 	str	x0, [sp, #40]
   83f5c:	f90013e1 	str	x1, [sp, #32]
   83f60:	b9001fe2 	str	w2, [sp, #28]
   83f64:	b9401fe0 	ldr	w0, [sp, #28]
   83f68:	11000400 	add	w0, w0, #0x1
   83f6c:	b9003fe0 	str	w0, [sp, #60]
   83f70:	b0000000 	adrp	x0, 84000 <buddy_merge+0xb0>
   83f74:	9139c000 	add	x0, x0, #0xe70
   83f78:	97fff783 	bl	81d84 <uart_puts>
   83f7c:	b9401fe0 	ldr	w0, [sp, #28]
   83f80:	97fff798 	bl	81de0 <uart_hex>
   83f84:	b0000000 	adrp	x0, 84000 <buddy_merge+0xb0>
   83f88:	913a2000 	add	x0, x0, #0xe88
   83f8c:	97fff77e 	bl	81d84 <uart_puts>
   83f90:	b9403fe0 	ldr	w0, [sp, #60]
   83f94:	97fff793 	bl	81de0 <uart_hex>
   83f98:	b0000000 	adrp	x0, 84000 <buddy_merge+0xb0>
   83f9c:	913a6000 	add	x0, x0, #0xe98
   83fa0:	97fff779 	bl	81d84 <uart_puts>
   83fa4:	f94017e0 	ldr	x0, [sp, #40]
   83fa8:	b9402000 	ldr	w0, [x0, #32]
   83fac:	97fff78d 	bl	81de0 <uart_hex>
   83fb0:	b0000000 	adrp	x0, 84000 <buddy_merge+0xb0>
   83fb4:	913a8000 	add	x0, x0, #0xea0
   83fb8:	97fff773 	bl	81d84 <uart_puts>
   83fbc:	f94013e0 	ldr	x0, [sp, #32]
   83fc0:	b9402000 	ldr	w0, [x0, #32]
   83fc4:	97fff787 	bl	81de0 <uart_hex>
   83fc8:	b0000000 	adrp	x0, 84000 <buddy_merge+0xb0>
   83fcc:	913aa000 	add	x0, x0, #0xea8
   83fd0:	97fff76d 	bl	81d84 <uart_puts>
   83fd4:	f94017e0 	ldr	x0, [sp, #40]
   83fd8:	b9402000 	ldr	w0, [x0, #32]
   83fdc:	b9403fe1 	ldr	w1, [sp, #60]
   83fe0:	97ffffc9 	bl	83f04 <find_buddy>
   83fe4:	f9001be0 	str	x0, [sp, #48]
   83fe8:	f9401be0 	ldr	x0, [sp, #48]
   83fec:	b9401800 	ldr	w0, [x0, #24]
   83ff0:	7100001f 	cmp	w0, #0x0
   83ff4:	54000401 	b.ne	84074 <buddy_merge+0x124>  // b.any
   83ff8:	f9401be0 	ldr	x0, [sp, #48]
   83ffc:	b9401c00 	ldr	w0, [x0, #28]
   84000:	b9403fe1 	ldr	w1, [sp, #60]
   84004:	6b00003f 	cmp	w1, w0
   84008:	54000361 	b.ne	84074 <buddy_merge+0x124>  // b.any
   8400c:	b9403fe0 	ldr	w0, [sp, #60]
   84010:	71001c1f 	cmp	w0, #0x7
   84014:	5400030c 	b.gt	84074 <buddy_merge+0x124>
   84018:	b9403fe0 	ldr	w0, [sp, #60]
   8401c:	97fff771 	bl	81de0 <uart_hex>
   84020:	b9803fe0 	ldrsw	x0, [sp, #60]
   84024:	d37be801 	lsl	x1, x0, #5
   84028:	b0000000 	adrp	x0, 85000 <main+0x83c>
   8402c:	f944b800 	ldr	x0, [x0, #2416]
   84030:	8b000020 	add	x0, x1, x0
   84034:	f9401be1 	ldr	x1, [sp, #48]
   84038:	97fffecb 	bl	83b64 <buddy_remove>
   8403c:	f9401be1 	ldr	x1, [sp, #48]
   84040:	f94017e0 	ldr	x0, [sp, #40]
   84044:	eb00003f 	cmp	x1, x0
   84048:	540000c9 	b.ls	84060 <buddy_merge+0x110>  // b.plast
   8404c:	b9403fe2 	ldr	w2, [sp, #60]
   84050:	f9401be1 	ldr	x1, [sp, #48]
   84054:	f94017e0 	ldr	x0, [sp, #40]
   84058:	97ffffbe 	bl	83f50 <buddy_merge>
   8405c:	14000016 	b	840b4 <buddy_merge+0x164>
   84060:	b9403fe2 	ldr	w2, [sp, #60]
   84064:	f94017e1 	ldr	x1, [sp, #40]
   84068:	f9401be0 	ldr	x0, [sp, #48]
   8406c:	97ffffb9 	bl	83f50 <buddy_merge>
   84070:	14000011 	b	840b4 <buddy_merge+0x164>
   84074:	f94017e0 	ldr	x0, [sp, #40]
   84078:	b9403fe1 	ldr	w1, [sp, #60]
   8407c:	b9001c01 	str	w1, [x0, #28]
   84080:	f94017e0 	ldr	x0, [sp, #40]
   84084:	b900181f 	str	wzr, [x0, #24]
   84088:	f94013e0 	ldr	x0, [sp, #32]
   8408c:	12800001 	mov	w1, #0xffffffff            	// #-1
   84090:	b9001c01 	str	w1, [x0, #28]
   84094:	b9803fe0 	ldrsw	x0, [sp, #60]
   84098:	d37be801 	lsl	x1, x0, #5
   8409c:	b0000000 	adrp	x0, 85000 <main+0x83c>
   840a0:	f944b800 	ldr	x0, [x0, #2416]
   840a4:	8b000020 	add	x0, x1, x0
   840a8:	f94017e1 	ldr	x1, [sp, #40]
   840ac:	97fffe94 	bl	83afc <buddy_push>
   840b0:	d503201f 	nop
   840b4:	d503201f 	nop
   840b8:	a8c47bfd 	ldp	x29, x30, [sp], #64
   840bc:	d65f03c0 	ret

00000000000840c0 <memzero>:
   840c0:	d10083ff 	sub	sp, sp, #0x20
   840c4:	f90007e0 	str	x0, [sp, #8]
   840c8:	f94007e0 	ldr	x0, [sp, #8]
   840cc:	b9401c00 	ldr	w0, [x0, #28]
   840d0:	52800021 	mov	w1, #0x1                   	// #1
   840d4:	1ac02020 	lsl	w0, w1, w0
   840d8:	b9001be0 	str	w0, [sp, #24]
   840dc:	f94007e0 	ldr	x0, [sp, #8]
   840e0:	b9402000 	ldr	w0, [x0, #32]
   840e4:	11400400 	add	w0, w0, #0x1, lsl #12
   840e8:	53144c00 	lsl	w0, w0, #12
   840ec:	93407c00 	sxtw	x0, w0
   840f0:	f9000be0 	str	x0, [sp, #16]
   840f4:	b9001fff 	str	wzr, [sp, #28]
   840f8:	1400000b 	b	84124 <memzero+0x64>
   840fc:	b9401fe0 	ldr	w0, [sp, #28]
   84100:	53144c00 	lsl	w0, w0, #12
   84104:	93407c00 	sxtw	x0, w0
   84108:	d37df000 	lsl	x0, x0, #3
   8410c:	f9400be1 	ldr	x1, [sp, #16]
   84110:	8b000020 	add	x0, x1, x0
   84114:	f900001f 	str	xzr, [x0]
   84118:	b9401fe0 	ldr	w0, [sp, #28]
   8411c:	11000400 	add	w0, w0, #0x1
   84120:	b9001fe0 	str	w0, [sp, #28]
   84124:	b9401fe1 	ldr	w1, [sp, #28]
   84128:	b9401be0 	ldr	w0, [sp, #24]
   8412c:	6b00003f 	cmp	w1, w0
   84130:	54fffe6b 	b.lt	840fc <memzero+0x3c>  // b.tstop
   84134:	d503201f 	nop
   84138:	d503201f 	nop
   8413c:	910083ff 	add	sp, sp, #0x20
   84140:	d65f03c0 	ret

0000000000084144 <buddy_free>:
   84144:	a9bc7bfd 	stp	x29, x30, [sp, #-64]!
   84148:	910003fd 	mov	x29, sp
   8414c:	f9000fe0 	str	x0, [sp, #24]
   84150:	f9400fe1 	ldr	x1, [sp, #24]
   84154:	b2689fe0 	mov	x0, #0xffffffffff000000    	// #-16777216
   84158:	8b000020 	add	x0, x1, x0
   8415c:	d34cfc00 	lsr	x0, x0, #12
   84160:	b9003be0 	str	w0, [sp, #56]
   84164:	b9803be1 	ldrsw	x1, [sp, #56]
   84168:	aa0103e0 	mov	x0, x1
   8416c:	d37ef400 	lsl	x0, x0, #2
   84170:	8b010000 	add	x0, x0, x1
   84174:	d37df000 	lsl	x0, x0, #3
   84178:	b0000001 	adrp	x1, 85000 <main+0x83c>
   8417c:	f944a821 	ldr	x1, [x1, #2384]
   84180:	8b010000 	add	x0, x0, x1
   84184:	f9001be0 	str	x0, [sp, #48]
   84188:	f9401be0 	ldr	x0, [sp, #48]
   8418c:	b9401c00 	ldr	w0, [x0, #28]
   84190:	b9002fe0 	str	w0, [sp, #44]
   84194:	b9402fe1 	ldr	w1, [sp, #44]
   84198:	b9403be0 	ldr	w0, [sp, #56]
   8419c:	97ffff5a 	bl	83f04 <find_buddy>
   841a0:	f90013e0 	str	x0, [sp, #32]
   841a4:	f94013e0 	ldr	x0, [sp, #32]
   841a8:	b9401800 	ldr	w0, [x0, #24]
   841ac:	7100041f 	cmp	w0, #0x1
   841b0:	540000c0 	b.eq	841c8 <buddy_free+0x84>  // b.none
   841b4:	f94013e0 	ldr	x0, [sp, #32]
   841b8:	b9401c00 	ldr	w0, [x0, #28]
   841bc:	b9402fe1 	ldr	w1, [sp, #44]
   841c0:	6b00003f 	cmp	w1, w0
   841c4:	540005a0 	b.eq	84278 <buddy_free+0x134>  // b.none
   841c8:	f94013e0 	ldr	x0, [sp, #32]
   841cc:	b9402000 	ldr	w0, [x0, #32]
   841d0:	11400400 	add	w0, w0, #0x1, lsl #12
   841d4:	53144c00 	lsl	w0, w0, #12
   841d8:	97fff702 	bl	81de0 <uart_hex>
   841dc:	90000000 	adrp	x0, 84000 <buddy_merge+0xb0>
   841e0:	913ac000 	add	x0, x0, #0xeb0
   841e4:	97fff6e8 	bl	81d84 <uart_puts>
   841e8:	f9401be0 	ldr	x0, [sp, #48]
   841ec:	b9402000 	ldr	w0, [x0, #32]
   841f0:	11400400 	add	w0, w0, #0x1, lsl #12
   841f4:	53144c00 	lsl	w0, w0, #12
   841f8:	97fff6fa 	bl	81de0 <uart_hex>
   841fc:	90000000 	adrp	x0, 84000 <buddy_merge+0xb0>
   84200:	9138a000 	add	x0, x0, #0xe28
   84204:	97fff6e0 	bl	81d84 <uart_puts>
   84208:	b9003fff 	str	wzr, [sp, #60]
   8420c:	1400000d 	b	84240 <buddy_free+0xfc>
   84210:	b9803fe1 	ldrsw	x1, [sp, #60]
   84214:	aa0103e0 	mov	x0, x1
   84218:	d37ef400 	lsl	x0, x0, #2
   8421c:	8b010000 	add	x0, x0, x1
   84220:	d37df000 	lsl	x0, x0, #3
   84224:	aa0003e1 	mov	x1, x0
   84228:	f9401be0 	ldr	x0, [sp, #48]
   8422c:	8b010000 	add	x0, x0, x1
   84230:	b900181f 	str	wzr, [x0, #24]
   84234:	b9403fe0 	ldr	w0, [sp, #60]
   84238:	11000400 	add	w0, w0, #0x1
   8423c:	b9003fe0 	str	w0, [sp, #60]
   84240:	b9402fe0 	ldr	w0, [sp, #44]
   84244:	52800021 	mov	w1, #0x1                   	// #1
   84248:	1ac02020 	lsl	w0, w1, w0
   8424c:	b9403fe1 	ldr	w1, [sp, #60]
   84250:	6b00003f 	cmp	w1, w0
   84254:	54fffdeb 	b.lt	84210 <buddy_free+0xcc>  // b.tstop
   84258:	b9802fe0 	ldrsw	x0, [sp, #44]
   8425c:	d37be801 	lsl	x1, x0, #5
   84260:	b0000000 	adrp	x0, 85000 <main+0x83c>
   84264:	f944b800 	ldr	x0, [x0, #2416]
   84268:	8b000020 	add	x0, x1, x0
   8426c:	f9401be1 	ldr	x1, [sp, #48]
   84270:	97fffe23 	bl	83afc <buddy_push>
   84274:	14000015 	b	842c8 <buddy_free+0x184>
   84278:	b9802fe0 	ldrsw	x0, [sp, #44]
   8427c:	d37be801 	lsl	x1, x0, #5
   84280:	b0000000 	adrp	x0, 85000 <main+0x83c>
   84284:	f944b800 	ldr	x0, [x0, #2416]
   84288:	8b000020 	add	x0, x1, x0
   8428c:	f94013e1 	ldr	x1, [sp, #32]
   84290:	97fffe35 	bl	83b64 <buddy_remove>
   84294:	f94013e1 	ldr	x1, [sp, #32]
   84298:	f9401be0 	ldr	x0, [sp, #48]
   8429c:	eb00003f 	cmp	x1, x0
   842a0:	540000c9 	b.ls	842b8 <buddy_free+0x174>  // b.plast
   842a4:	b9402fe2 	ldr	w2, [sp, #44]
   842a8:	f94013e1 	ldr	x1, [sp, #32]
   842ac:	f9401be0 	ldr	x0, [sp, #48]
   842b0:	97ffff28 	bl	83f50 <buddy_merge>
   842b4:	14000005 	b	842c8 <buddy_free+0x184>
   842b8:	b9402fe2 	ldr	w2, [sp, #44]
   842bc:	f9401be1 	ldr	x1, [sp, #48]
   842c0:	f94013e0 	ldr	x0, [sp, #32]
   842c4:	97ffff23 	bl	83f50 <buddy_merge>
   842c8:	d503201f 	nop
   842cc:	a8c47bfd 	ldp	x29, x30, [sp], #64
   842d0:	d65f03c0 	ret

00000000000842d4 <pool_init>:
   842d4:	d10043ff 	sub	sp, sp, #0x10
   842d8:	f90007e0 	str	x0, [sp, #8]
   842dc:	f90003e1 	str	x1, [sp]
   842e0:	f94003e0 	ldr	x0, [sp]
   842e4:	2a0003e1 	mov	w1, w0
   842e8:	f94007e0 	ldr	x0, [sp, #8]
   842ec:	b9000401 	str	w1, [x0, #4]
   842f0:	d2820001 	mov	x1, #0x1000                	// #4096
   842f4:	f94003e0 	ldr	x0, [sp]
   842f8:	9ac00820 	udiv	x0, x1, x0
   842fc:	2a0003e1 	mov	w1, w0
   84300:	f94007e0 	ldr	x0, [sp, #8]
   84304:	b9000801 	str	w1, [x0, #8]
   84308:	f94007e0 	ldr	x0, [sp, #8]
   8430c:	b9000c1f 	str	wzr, [x0, #12]
   84310:	f94007e0 	ldr	x0, [sp, #8]
   84314:	b900101f 	str	wzr, [x0, #16]
   84318:	f94007e0 	ldr	x0, [sp, #8]
   8431c:	f9004c1f 	str	xzr, [x0, #152]
   84320:	d503201f 	nop
   84324:	910043ff 	add	sp, sp, #0x10
   84328:	d65f03c0 	ret

000000000008432c <size_register>:
   8432c:	a9bd7bfd 	stp	x29, x30, [sp, #-48]!
   84330:	910003fd 	mov	x29, sp
   84334:	f9000fe0 	str	x0, [sp, #24]
   84338:	f9400fe0 	ldr	x0, [sp, #24]
   8433c:	f140041f 	cmp	x0, #0x1, lsl #12
   84340:	540000c9 	b.ls	84358 <size_register+0x2c>  // b.plast
   84344:	90000000 	adrp	x0, 84000 <buddy_merge+0xb0>
   84348:	913b4000 	add	x0, x0, #0xed0
   8434c:	97fff68e 	bl	81d84 <uart_puts>
   84350:	12800000 	mov	w0, #0xffffffff            	// #-1
   84354:	1400002e 	b	8440c <size_register+0xe0>
   84358:	b9002fff 	str	wzr, [sp, #44]
   8435c:	14000025 	b	843f0 <size_register+0xc4>
   84360:	b0000000 	adrp	x0, 85000 <main+0x83c>
   84364:	f9447402 	ldr	x2, [x0, #2280]
   84368:	b9802fe1 	ldrsw	x1, [sp, #44]
   8436c:	aa0103e0 	mov	x0, x1
   84370:	d37ef400 	lsl	x0, x0, #2
   84374:	8b010000 	add	x0, x0, x1
   84378:	d37be800 	lsl	x0, x0, #5
   8437c:	8b000040 	add	x0, x2, x0
   84380:	b9400000 	ldr	w0, [x0]
   84384:	7100001f 	cmp	w0, #0x0
   84388:	540002e1 	b.ne	843e4 <size_register+0xb8>  // b.any
   8438c:	b0000000 	adrp	x0, 85000 <main+0x83c>
   84390:	f9447402 	ldr	x2, [x0, #2280]
   84394:	b9802fe1 	ldrsw	x1, [sp, #44]
   84398:	aa0103e0 	mov	x0, x1
   8439c:	d37ef400 	lsl	x0, x0, #2
   843a0:	8b010000 	add	x0, x0, x1
   843a4:	d37be800 	lsl	x0, x0, #5
   843a8:	8b000040 	add	x0, x2, x0
   843ac:	52800021 	mov	w1, #0x1                   	// #1
   843b0:	b9000001 	str	w1, [x0]
   843b4:	b9802fe1 	ldrsw	x1, [sp, #44]
   843b8:	aa0103e0 	mov	x0, x1
   843bc:	d37ef400 	lsl	x0, x0, #2
   843c0:	8b010000 	add	x0, x0, x1
   843c4:	d37be800 	lsl	x0, x0, #5
   843c8:	b0000001 	adrp	x1, 85000 <main+0x83c>
   843cc:	f9447421 	ldr	x1, [x1, #2280]
   843d0:	8b010000 	add	x0, x0, x1
   843d4:	f9400fe1 	ldr	x1, [sp, #24]
   843d8:	97ffffbf 	bl	842d4 <pool_init>
   843dc:	b9402fe0 	ldr	w0, [sp, #44]
   843e0:	1400000b 	b	8440c <size_register+0xe0>
   843e4:	b9402fe0 	ldr	w0, [sp, #44]
   843e8:	11000400 	add	w0, w0, #0x1
   843ec:	b9002fe0 	str	w0, [sp, #44]
   843f0:	b9402fe0 	ldr	w0, [sp, #44]
   843f4:	71007c1f 	cmp	w0, #0x1f
   843f8:	54fffb4d 	b.le	84360 <size_register+0x34>
   843fc:	90000000 	adrp	x0, 84000 <buddy_merge+0xb0>
   84400:	913ba000 	add	x0, x0, #0xee8
   84404:	97fff660 	bl	81d84 <uart_puts>
   84408:	12800000 	mov	w0, #0xffffffff            	// #-1
   8440c:	a8c37bfd 	ldp	x29, x30, [sp], #48
   84410:	d65f03c0 	ret

0000000000084414 <obj_alloc>:
   84414:	a9bc7bfd 	stp	x29, x30, [sp, #-64]!
   84418:	910003fd 	mov	x29, sp
   8441c:	b9001fe0 	str	w0, [sp, #28]
   84420:	b9801fe1 	ldrsw	x1, [sp, #28]
   84424:	aa0103e0 	mov	x0, x1
   84428:	d37ef400 	lsl	x0, x0, #2
   8442c:	8b010000 	add	x0, x0, x1
   84430:	d37be800 	lsl	x0, x0, #5
   84434:	b0000001 	adrp	x1, 85000 <main+0x83c>
   84438:	f9447421 	ldr	x1, [x1, #2280]
   8443c:	8b010000 	add	x0, x0, x1
   84440:	f9001fe0 	str	x0, [sp, #56]
   84444:	f9401fe0 	ldr	x0, [sp, #56]
   84448:	f9404c00 	ldr	x0, [x0, #152]
   8444c:	f100001f 	cmp	x0, #0x0
   84450:	54000160 	b.eq	8447c <obj_alloc+0x68>  // b.none
   84454:	f9401fe0 	ldr	x0, [sp, #56]
   84458:	f9404c00 	ldr	x0, [x0, #152]
   8445c:	f90017e0 	str	x0, [sp, #40]
   84460:	f9401fe0 	ldr	x0, [sp, #56]
   84464:	f9404c00 	ldr	x0, [x0, #152]
   84468:	f9400001 	ldr	x1, [x0]
   8446c:	f9401fe0 	ldr	x0, [sp, #56]
   84470:	f9004c01 	str	x1, [x0, #152]
   84474:	f94017e0 	ldr	x0, [sp, #40]
   84478:	14000032 	b	84540 <obj_alloc+0x12c>
   8447c:	f9401fe0 	ldr	x0, [sp, #56]
   84480:	b9400c01 	ldr	w1, [x0, #12]
   84484:	f9401fe0 	ldr	x0, [sp, #56]
   84488:	b9401002 	ldr	w2, [x0, #16]
   8448c:	f9401fe0 	ldr	x0, [sp, #56]
   84490:	b9400800 	ldr	w0, [x0, #8]
   84494:	1b007c40 	mul	w0, w2, w0
   84498:	6b00003f 	cmp	w1, w0
   8449c:	5400024b 	b.lt	844e4 <obj_alloc+0xd0>  // b.tstop
   844a0:	52800000 	mov	w0, #0x0                   	// #0
   844a4:	97fffdc9 	bl	83bc8 <buddy_alloc>
   844a8:	aa0003e1 	mov	x1, x0
   844ac:	f9401fe0 	ldr	x0, [sp, #56]
   844b0:	b9401000 	ldr	w0, [x0, #16]
   844b4:	aa0103e2 	mov	x2, x1
   844b8:	f9401fe1 	ldr	x1, [sp, #56]
   844bc:	93407c00 	sxtw	x0, w0
   844c0:	91000800 	add	x0, x0, #0x2
   844c4:	d37df000 	lsl	x0, x0, #3
   844c8:	8b000020 	add	x0, x1, x0
   844cc:	f9000402 	str	x2, [x0, #8]
   844d0:	f9401fe0 	ldr	x0, [sp, #56]
   844d4:	b9401000 	ldr	w0, [x0, #16]
   844d8:	11000401 	add	w1, w0, #0x1
   844dc:	f9401fe0 	ldr	x0, [sp, #56]
   844e0:	b9001001 	str	w1, [x0, #16]
   844e4:	f9401fe0 	ldr	x0, [sp, #56]
   844e8:	b9401000 	ldr	w0, [x0, #16]
   844ec:	51000400 	sub	w0, w0, #0x1
   844f0:	f9401fe1 	ldr	x1, [sp, #56]
   844f4:	93407c00 	sxtw	x0, w0
   844f8:	91000800 	add	x0, x0, #0x2
   844fc:	d37df000 	lsl	x0, x0, #3
   84500:	8b000020 	add	x0, x1, x0
   84504:	f9400401 	ldr	x1, [x0, #8]
   84508:	f9401fe0 	ldr	x0, [sp, #56]
   8450c:	b9400c02 	ldr	w2, [x0, #12]
   84510:	f9401fe0 	ldr	x0, [sp, #56]
   84514:	b9400400 	ldr	w0, [x0, #4]
   84518:	1b007c40 	mul	w0, w2, w0
   8451c:	93407c00 	sxtw	x0, w0
   84520:	8b000020 	add	x0, x1, x0
   84524:	f9001be0 	str	x0, [sp, #48]
   84528:	f9401fe0 	ldr	x0, [sp, #56]
   8452c:	b9400c00 	ldr	w0, [x0, #12]
   84530:	11000401 	add	w1, w0, #0x1
   84534:	f9401fe0 	ldr	x0, [sp, #56]
   84538:	b9000c01 	str	w1, [x0, #12]
   8453c:	f9401be0 	ldr	x0, [sp, #48]
   84540:	a8c47bfd 	ldp	x29, x30, [sp], #64
   84544:	d65f03c0 	ret

0000000000084548 <obj_free>:
   84548:	d100c3ff 	sub	sp, sp, #0x30
   8454c:	b9000fe0 	str	w0, [sp, #12]
   84550:	f90003e1 	str	x1, [sp]
   84554:	b9400fe0 	ldr	w0, [sp, #12]
   84558:	b9002fe0 	str	w0, [sp, #44]
   8455c:	b9802fe1 	ldrsw	x1, [sp, #44]
   84560:	aa0103e0 	mov	x0, x1
   84564:	d37ef400 	lsl	x0, x0, #2
   84568:	8b010000 	add	x0, x0, x1
   8456c:	d37be800 	lsl	x0, x0, #5
   84570:	b0000001 	adrp	x1, 85000 <main+0x83c>
   84574:	f9447421 	ldr	x1, [x1, #2280]
   84578:	8b010000 	add	x0, x0, x1
   8457c:	f90013e0 	str	x0, [sp, #32]
   84580:	f94013e0 	ldr	x0, [sp, #32]
   84584:	f9404c00 	ldr	x0, [x0, #152]
   84588:	f9000fe0 	str	x0, [sp, #24]
   8458c:	f94013e0 	ldr	x0, [sp, #32]
   84590:	f94003e1 	ldr	x1, [sp]
   84594:	f9004c01 	str	x1, [x0, #152]
   84598:	f94013e0 	ldr	x0, [sp, #32]
   8459c:	f9404c00 	ldr	x0, [x0, #152]
   845a0:	f9400fe1 	ldr	x1, [sp, #24]
   845a4:	f9000001 	str	x1, [x0]
   845a8:	f94013e0 	ldr	x0, [sp, #32]
   845ac:	b9400c00 	ldr	w0, [x0, #12]
   845b0:	51000401 	sub	w1, w0, #0x1
   845b4:	f94013e0 	ldr	x0, [sp, #32]
   845b8:	b9000c01 	str	w1, [x0, #12]
   845bc:	d503201f 	nop
   845c0:	9100c3ff 	add	sp, sp, #0x30
   845c4:	d65f03c0 	ret

00000000000845c8 <kmalloc>:
   845c8:	a9bd7bfd 	stp	x29, x30, [sp, #-48]!
   845cc:	910003fd 	mov	x29, sp
   845d0:	f9000fe0 	str	x0, [sp, #24]
   845d4:	f9400fe0 	ldr	x0, [sp, #24]
   845d8:	f13ffc1f 	cmp	x0, #0xfff
   845dc:	54000329 	b.ls	84640 <kmalloc+0x78>  // b.plast
   845e0:	90000000 	adrp	x0, 84000 <buddy_merge+0xb0>
   845e4:	913c4000 	add	x0, x0, #0xf10
   845e8:	97fff5e7 	bl	81d84 <uart_puts>
   845ec:	b9002bff 	str	wzr, [sp, #40]
   845f0:	1400000e 	b	84628 <kmalloc+0x60>
   845f4:	b9402be0 	ldr	w0, [sp, #40]
   845f8:	52820001 	mov	w1, #0x1000                	// #4096
   845fc:	1ac02020 	lsl	w0, w1, w0
   84600:	93407c00 	sxtw	x0, w0
   84604:	f9400fe1 	ldr	x1, [sp, #24]
   84608:	eb00003f 	cmp	x1, x0
   8460c:	54000088 	b.hi	8461c <kmalloc+0x54>  // b.pmore
   84610:	b9402be0 	ldr	w0, [sp, #40]
   84614:	b9002fe0 	str	w0, [sp, #44]
   84618:	14000007 	b	84634 <kmalloc+0x6c>
   8461c:	b9402be0 	ldr	w0, [sp, #40]
   84620:	11000400 	add	w0, w0, #0x1
   84624:	b9002be0 	str	w0, [sp, #40]
   84628:	b9402be0 	ldr	w0, [sp, #40]
   8462c:	7100201f 	cmp	w0, #0x8
   84630:	54fffe2d 	b.le	845f4 <kmalloc+0x2c>
   84634:	b9402fe0 	ldr	w0, [sp, #44]
   84638:	97fffd64 	bl	83bc8 <buddy_alloc>
   8463c:	14000021 	b	846c0 <kmalloc+0xf8>
   84640:	90000000 	adrp	x0, 84000 <buddy_merge+0xb0>
   84644:	913cc000 	add	x0, x0, #0xf30
   84648:	97fff5cf 	bl	81d84 <uart_puts>
   8464c:	b90027ff 	str	wzr, [sp, #36]
   84650:	14000014 	b	846a0 <kmalloc+0xd8>
   84654:	b0000000 	adrp	x0, 85000 <main+0x83c>
   84658:	f9447402 	ldr	x2, [x0, #2280]
   8465c:	b98027e1 	ldrsw	x1, [sp, #36]
   84660:	aa0103e0 	mov	x0, x1
   84664:	d37ef400 	lsl	x0, x0, #2
   84668:	8b010000 	add	x0, x0, x1
   8466c:	d37be800 	lsl	x0, x0, #5
   84670:	8b000040 	add	x0, x2, x0
   84674:	b9400400 	ldr	w0, [x0, #4]
   84678:	93407c00 	sxtw	x0, w0
   8467c:	f9400fe1 	ldr	x1, [sp, #24]
   84680:	eb00003f 	cmp	x1, x0
   84684:	54000081 	b.ne	84694 <kmalloc+0xcc>  // b.any
   84688:	b94027e0 	ldr	w0, [sp, #36]
   8468c:	97ffff62 	bl	84414 <obj_alloc>
   84690:	1400000c 	b	846c0 <kmalloc+0xf8>
   84694:	b94027e0 	ldr	w0, [sp, #36]
   84698:	11000400 	add	w0, w0, #0x1
   8469c:	b90027e0 	str	w0, [sp, #36]
   846a0:	b94027e0 	ldr	w0, [sp, #36]
   846a4:	71007c1f 	cmp	w0, #0x1f
   846a8:	54fffd6d 	b.le	84654 <kmalloc+0x8c>
   846ac:	f9400fe0 	ldr	x0, [sp, #24]
   846b0:	97ffff1f 	bl	8432c <size_register>
   846b4:	b90023e0 	str	w0, [sp, #32]
   846b8:	b94023e0 	ldr	w0, [sp, #32]
   846bc:	97ffff56 	bl	84414 <obj_alloc>
   846c0:	a8c37bfd 	ldp	x29, x30, [sp], #48
   846c4:	d65f03c0 	ret

00000000000846c8 <kfree>:
   846c8:	a9bc7bfd 	stp	x29, x30, [sp, #-64]!
   846cc:	910003fd 	mov	x29, sp
   846d0:	f9000fe0 	str	x0, [sp, #24]
   846d4:	b9003fff 	str	wzr, [sp, #60]
   846d8:	14000031 	b	8479c <kfree+0xd4>
   846dc:	b9803fe1 	ldrsw	x1, [sp, #60]
   846e0:	aa0103e0 	mov	x0, x1
   846e4:	d37ef400 	lsl	x0, x0, #2
   846e8:	8b010000 	add	x0, x0, x1
   846ec:	d37be800 	lsl	x0, x0, #5
   846f0:	b0000001 	adrp	x1, 85000 <main+0x83c>
   846f4:	f9447421 	ldr	x1, [x1, #2280]
   846f8:	8b010000 	add	x0, x0, x1
   846fc:	f9001be0 	str	x0, [sp, #48]
   84700:	b9003bff 	str	wzr, [sp, #56]
   84704:	1400001e 	b	8477c <kfree+0xb4>
   84708:	f9400fe1 	ldr	x1, [sp, #24]
   8470c:	b2689fe0 	mov	x0, #0xffffffffff000000    	// #-16777216
   84710:	8b000020 	add	x0, x1, x0
   84714:	d34cfc00 	lsr	x0, x0, #12
   84718:	b9002fe0 	str	w0, [sp, #44]
   8471c:	f9401be1 	ldr	x1, [sp, #48]
   84720:	b9803be0 	ldrsw	x0, [sp, #56]
   84724:	91000800 	add	x0, x0, #0x2
   84728:	d37df000 	lsl	x0, x0, #3
   8472c:	8b000020 	add	x0, x1, x0
   84730:	f9400401 	ldr	x1, [x0, #8]
   84734:	b2689fe0 	mov	x0, #0xffffffffff000000    	// #-16777216
   84738:	8b000020 	add	x0, x1, x0
   8473c:	d34cfc00 	lsr	x0, x0, #12
   84740:	b9002be0 	str	w0, [sp, #40]
   84744:	b9402fe1 	ldr	w1, [sp, #44]
   84748:	b9402be0 	ldr	w0, [sp, #40]
   8474c:	6b00003f 	cmp	w1, w0
   84750:	54000101 	b.ne	84770 <kfree+0xa8>  // b.any
   84754:	90000000 	adrp	x0, 84000 <buddy_merge+0xb0>
   84758:	913d4000 	add	x0, x0, #0xf50
   8475c:	97fff58a 	bl	81d84 <uart_puts>
   84760:	f9400fe1 	ldr	x1, [sp, #24]
   84764:	b9403fe0 	ldr	w0, [sp, #60]
   84768:	97ffff78 	bl	84548 <obj_free>
   8476c:	14000014 	b	847bc <kfree+0xf4>
   84770:	b9403be0 	ldr	w0, [sp, #56]
   84774:	11000400 	add	w0, w0, #0x1
   84778:	b9003be0 	str	w0, [sp, #56]
   8477c:	f9401be0 	ldr	x0, [sp, #48]
   84780:	b9401000 	ldr	w0, [x0, #16]
   84784:	b9403be1 	ldr	w1, [sp, #56]
   84788:	6b00003f 	cmp	w1, w0
   8478c:	54fffbeb 	b.lt	84708 <kfree+0x40>  // b.tstop
   84790:	b9403fe0 	ldr	w0, [sp, #60]
   84794:	11000400 	add	w0, w0, #0x1
   84798:	b9003fe0 	str	w0, [sp, #60]
   8479c:	b9403fe0 	ldr	w0, [sp, #60]
   847a0:	71007c1f 	cmp	w0, #0x1f
   847a4:	54fff9cd 	b.le	846dc <kfree+0x14>
   847a8:	90000000 	adrp	x0, 84000 <buddy_merge+0xb0>
   847ac:	913dc000 	add	x0, x0, #0xf70
   847b0:	97fff575 	bl	81d84 <uart_puts>
   847b4:	f9400fe0 	ldr	x0, [sp, #24]
   847b8:	97fffe63 	bl	84144 <buddy_free>
   847bc:	a8c47bfd 	ldp	x29, x30, [sp], #64
   847c0:	d65f03c0 	ret

00000000000847c4 <main>:
   847c4:	a9be7bfd 	stp	x29, x30, [sp, #-32]!
   847c8:	910003fd 	mov	x29, sp
   847cc:	f9000fe0 	str	x0, [sp, #24]
   847d0:	97fff4ff 	bl	81bcc <uart_init>
   847d4:	90000000 	adrp	x0, 84000 <buddy_merge+0xb0>
   847d8:	913e2000 	add	x0, x0, #0xf88
   847dc:	97fff56a 	bl	81d84 <uart_puts>
   847e0:	f9400fe0 	ldr	x0, [sp, #24]
   847e4:	97fff57f 	bl	81de0 <uart_hex>
   847e8:	90000000 	adrp	x0, 84000 <buddy_merge+0xb0>
   847ec:	913e6000 	add	x0, x0, #0xf98
   847f0:	97fff565 	bl	81d84 <uart_puts>
   847f4:	f9400fe2 	ldr	x2, [sp, #24]
   847f8:	b0000000 	adrp	x0, 85000 <main+0x83c>
   847fc:	f9449801 	ldr	x1, [x0, #2352]
   84800:	aa0203e0 	mov	x0, x2
   84804:	97fff847 	bl	82920 <fdt_parser>
   84808:	97fffa18 	bl	83068 <init_timeout>
   8480c:	97fffca3 	bl	83a98 <mm_init>
   84810:	97fff453 	bl	8195c <exe_shell>
   84814:	d503201f 	nop
   84818:	a8c27bfd 	ldp	x29, x30, [sp], #32
   8481c:	d65f03c0 	ret
